Archive member included because of file (symbol)

C:\Users\moseichuk\AppData\Local\Temp\VMBuilds\TestSerial\Arduino_STM32_genericSTM32F103Z\Release\core.a(exc.S.o)
                              (__exc_nmi)
C:\Users\moseichuk\AppData\Local\Temp\VMBuilds\TestSerial\Arduino_STM32_genericSTM32F103Z\Release\core.a(isrs.S.o)
                              (__stm32reservedexception7)
C:\Users\moseichuk\AppData\Local\Temp\VMBuilds\TestSerial\Arduino_STM32_genericSTM32F103Z\Release\core.a(vector_table.S.o)
                              (__stm32_vector_table)
C:\Users\moseichuk\AppData\Local\Temp\VMBuilds\TestSerial\Arduino_STM32_genericSTM32F103Z\Release\core.a(adc.c.o)
                              C:\Users\moseichuk\AppData\Local\Temp\VMBuilds\TestSerial\Arduino_STM32_genericSTM32F103Z\Release\variant\boards.cpp.o (adc_set_sample_rate)
C:\Users\moseichuk\AppData\Local\Temp\VMBuilds\TestSerial\Arduino_STM32_genericSTM32F103Z\Release\core.a(adc_f1.c.o)
                              (__irq_adc)
C:\Users\moseichuk\AppData\Local\Temp\VMBuilds\TestSerial\Arduino_STM32_genericSTM32F103Z\Release\core.a(dma_f1.c.o)
                              (__irq_dma1_channel1)
C:\Users\moseichuk\AppData\Local\Temp\VMBuilds\TestSerial\Arduino_STM32_genericSTM32F103Z\Release\core.a(exti.c.o)
                              (__irq_exti0)
C:\Users\moseichuk\AppData\Local\Temp\VMBuilds\TestSerial\Arduino_STM32_genericSTM32F103Z\Release\core.a(exti_f1.c.o)
                              C:\Users\moseichuk\AppData\Local\Temp\VMBuilds\TestSerial\Arduino_STM32_genericSTM32F103Z\Release\core.a(exti.c.o) (exti_select)
C:\Users\moseichuk\AppData\Local\Temp\VMBuilds\TestSerial\Arduino_STM32_genericSTM32F103Z\Release\core.a(flash.c.o)
                              C:\Users\moseichuk\AppData\Local\Temp\VMBuilds\TestSerial\Arduino_STM32_genericSTM32F103Z\Release\variant\boards.cpp.o (flash_set_latency)
C:\Users\moseichuk\AppData\Local\Temp\VMBuilds\TestSerial\Arduino_STM32_genericSTM32F103Z\Release\core.a(gpio_f1.c.o)
                              C:\Users\moseichuk\AppData\Local\Temp\VMBuilds\TestSerial\Arduino_STM32_genericSTM32F103Z\Release\variant\boards_setup.cpp.o (gpio_init_all)
C:\Users\moseichuk\AppData\Local\Temp\VMBuilds\TestSerial\Arduino_STM32_genericSTM32F103Z\Release\core.a(i2c_f1.c.o)
                              (__irq_i2c1_ev)
C:\Users\moseichuk\AppData\Local\Temp\VMBuilds\TestSerial\Arduino_STM32_genericSTM32F103Z\Release\core.a(nvic.c.o)
                              C:\Users\moseichuk\AppData\Local\Temp\VMBuilds\TestSerial\Arduino_STM32_genericSTM32F103Z\Release\core.a(i2c_f1.c.o) (nvic_irq_set_priority)
C:\Users\moseichuk\AppData\Local\Temp\VMBuilds\TestSerial\Arduino_STM32_genericSTM32F103Z\Release\core.a(rcc.c.o)
                              C:\Users\moseichuk\AppData\Local\Temp\VMBuilds\TestSerial\Arduino_STM32_genericSTM32F103Z\Release\variant\boards.cpp.o (rcc_switch_sysclk)
C:\Users\moseichuk\AppData\Local\Temp\VMBuilds\TestSerial\Arduino_STM32_genericSTM32F103Z\Release\core.a(rcc_f1.c.o)
                              C:\Users\moseichuk\AppData\Local\Temp\VMBuilds\TestSerial\Arduino_STM32_genericSTM32F103Z\Release\variant\boards.cpp.o (rcc_configure_pll)
C:\Users\moseichuk\AppData\Local\Temp\VMBuilds\TestSerial\Arduino_STM32_genericSTM32F103Z\Release\core.a(systick.c.o)
                              C:\Users\moseichuk\AppData\Local\Temp\VMBuilds\TestSerial\Arduino_STM32_genericSTM32F103Z\Release\variant\boards.cpp.o (systick_init)
C:\Users\moseichuk\AppData\Local\Temp\VMBuilds\TestSerial\Arduino_STM32_genericSTM32F103Z\Release\core.a(timer.c.o)
                              C:\Users\moseichuk\AppData\Local\Temp\VMBuilds\TestSerial\Arduino_STM32_genericSTM32F103Z\Release\variant\boards.cpp.o (timer_foreach)
C:\Users\moseichuk\AppData\Local\Temp\VMBuilds\TestSerial\Arduino_STM32_genericSTM32F103Z\Release\core.a(usart_f1.c.o)
                              (__irq_usart1)
C:\Users\moseichuk\AppData\Local\Temp\VMBuilds\TestSerial\Arduino_STM32_genericSTM32F103Z\Release\core.a(usart_private.c.o)
                              C:\Users\moseichuk\AppData\Local\Temp\VMBuilds\TestSerial\Arduino_STM32_genericSTM32F103Z\Release\core.a(usart_f1.c.o) (_usart_clock_freq)
C:\Users\moseichuk\AppData\Local\Temp\VMBuilds\TestSerial\Arduino_STM32_genericSTM32F103Z\Release\core.a(util.c.o)
                              C:\Users\moseichuk\AppData\Local\Temp\VMBuilds\TestSerial\Arduino_STM32_genericSTM32F103Z\Release\core.a(exc.S.o) (__error)
C:\Users\moseichuk\AppData\Local\Temp\VMBuilds\TestSerial\Arduino_STM32_genericSTM32F103Z\Release\core.a(usb.c.o)
                              (__irq_usb_lp_can_rx0)
C:\Users\moseichuk\AppData\Local\Temp\VMBuilds\TestSerial\Arduino_STM32_genericSTM32F103Z\Release\core.a(usb_cdcacm.c.o)
                              C:\Users\moseichuk\AppData\Local\Temp\VMBuilds\TestSerial\Arduino_STM32_genericSTM32F103Z\Release\core.a(usb.c.o) (User_Standard_Requests)
C:\Users\moseichuk\AppData\Local\Temp\VMBuilds\TestSerial\Arduino_STM32_genericSTM32F103Z\Release\core.a(usb_reg_map.c.o)
                              C:\Users\moseichuk\AppData\Local\Temp\VMBuilds\TestSerial\Arduino_STM32_genericSTM32F103Z\Release\core.a(usb_cdcacm.c.o) (usb_set_ep_rx_count)
C:\Users\moseichuk\AppData\Local\Temp\VMBuilds\TestSerial\Arduino_STM32_genericSTM32F103Z\Release\core.a(usb_core.c.o)
                              C:\Users\moseichuk\AppData\Local\Temp\VMBuilds\TestSerial\Arduino_STM32_genericSTM32F103Z\Release\core.a(usb_cdcacm.c.o) (Standard_GetDescriptorData)
C:\Users\moseichuk\AppData\Local\Temp\VMBuilds\TestSerial\Arduino_STM32_genericSTM32F103Z\Release\core.a(usb_init.c.o)
                              C:\Users\moseichuk\AppData\Local\Temp\VMBuilds\TestSerial\Arduino_STM32_genericSTM32F103Z\Release\core.a(usb.c.o) (pInformation)
C:\Users\moseichuk\AppData\Local\Temp\VMBuilds\TestSerial\Arduino_STM32_genericSTM32F103Z\Release\core.a(usb_mem.c.o)
                              C:\Users\moseichuk\AppData\Local\Temp\VMBuilds\TestSerial\Arduino_STM32_genericSTM32F103Z\Release\core.a(usb_core.c.o) (UserToPMABufferCopy)
C:\Users\moseichuk\AppData\Local\Temp\VMBuilds\TestSerial\Arduino_STM32_genericSTM32F103Z\Release\core.a(usb_regs.c.o)
                              C:\Users\moseichuk\AppData\Local\Temp\VMBuilds\TestSerial\Arduino_STM32_genericSTM32F103Z\Release\core.a(usb_core.c.o) (SetEPTxStatus)
C:\Users\moseichuk\AppData\Local\Temp\VMBuilds\TestSerial\Arduino_STM32_genericSTM32F103Z\Release\core.a(HardwareSerial.cpp.o)
                              C:\Users\moseichuk\AppData\Local\Temp\VMBuilds\TestSerial\Arduino_STM32_genericSTM32F103Z\Release\variant\board.cpp.o (HardwareSerial::HardwareSerial(usart_dev*, unsigned char, unsigned char))
C:\Users\moseichuk\AppData\Local\Temp\VMBuilds\TestSerial\Arduino_STM32_genericSTM32F103Z\Release\core.a(main.cpp.o)
                              (main)
C:\Users\moseichuk\AppData\Local\Temp\VMBuilds\TestSerial\Arduino_STM32_genericSTM32F103Z\Release\core.a(Print.cpp.o)
                              C:\Users\moseichuk\AppData\Local\Temp\VMBuilds\TestSerial\Arduino_STM32_genericSTM32F103Z\Release\core.a(HardwareSerial.cpp.o) (Print::write(void const*, unsigned long))
C:\Users\moseichuk\AppData\Local\Temp\VMBuilds\TestSerial\Arduino_STM32_genericSTM32F103Z\Release\core.a(usb_serial.cpp.o)
                              C:\Users\moseichuk\AppData\Local\Temp\VMBuilds\TestSerial\Arduino_STM32_genericSTM32F103Z\Release\variant\boards_setup.cpp.o (USBSerial::begin())
C:\Users\moseichuk\AppData\Local\Temp\VMBuilds\TestSerial\Arduino_STM32_genericSTM32F103Z\Release\core.a(bkp_f1.c.o)
                              C:\Users\moseichuk\AppData\Local\Temp\VMBuilds\TestSerial\Arduino_STM32_genericSTM32F103Z\Release\core.a(usb_serial.cpp.o) (bkp_init)
C:\Users\moseichuk\AppData\Local\Temp\VMBuilds\TestSerial\Arduino_STM32_genericSTM32F103Z\Release\core.a(dma.c.o)
                              C:\Users\moseichuk\AppData\Local\Temp\VMBuilds\TestSerial\Arduino_STM32_genericSTM32F103Z\Release\core.a(dma_f1.c.o) (_dma_addr_type)
C:\Users\moseichuk\AppData\Local\Temp\VMBuilds\TestSerial\Arduino_STM32_genericSTM32F103Z\Release\core.a(gpio.c.o)
                              C:\Users\moseichuk\AppData\Local\Temp\VMBuilds\TestSerial\Arduino_STM32_genericSTM32F103Z\Release\core.a(gpio_f1.c.o) (gpio_init)
C:\Users\moseichuk\AppData\Local\Temp\VMBuilds\TestSerial\Arduino_STM32_genericSTM32F103Z\Release\core.a(i2c.c.o)
                              C:\Users\moseichuk\AppData\Local\Temp\VMBuilds\TestSerial\Arduino_STM32_genericSTM32F103Z\Release\core.a(i2c_f1.c.o) (_i2c_irq_handler)
C:\Users\moseichuk\AppData\Local\Temp\VMBuilds\TestSerial\Arduino_STM32_genericSTM32F103Z\Release\core.a(usart.c.o)
                              C:\Users\moseichuk\AppData\Local\Temp\VMBuilds\TestSerial\Arduino_STM32_genericSTM32F103Z\Release\core.a(HardwareSerial.cpp.o) (usart_init)
C:\Users\moseichuk\AppData\Local\Temp\VMBuilds\TestSerial\Arduino_STM32_genericSTM32F103Z\Release\core.a(cxxabi-compat.cpp.o)
                              C:\Users\moseichuk\AppData\Local\Temp\VMBuilds\TestSerial\Arduino_STM32_genericSTM32F103Z\Release\core.a(HardwareSerial.cpp.o) (__cxa_pure_virtual)
c:/users/moseichuk/appdata/local/arduino15/packages/arduino/tools/arm-none-eabi-gcc/4.8.3-2014q1/bin/../lib/gcc/arm-none-eabi/4.8.3/armv7-m\libgcc.a(_arm_addsubdf3.o)
                              C:\Users\moseichuk\AppData\Local\Temp\VMBuilds\TestSerial\Arduino_STM32_genericSTM32F103Z\Release\core.a(Print.cpp.o) (__aeabi_dsub)
c:/users/moseichuk/appdata/local/arduino15/packages/arduino/tools/arm-none-eabi-gcc/4.8.3-2014q1/bin/../lib/gcc/arm-none-eabi/4.8.3/armv7-m\libgcc.a(_arm_muldivdf3.o)
                              C:\Users\moseichuk\AppData\Local\Temp\VMBuilds\TestSerial\Arduino_STM32_genericSTM32F103Z\Release\core.a(Print.cpp.o) (__aeabi_dmul)
c:/users/moseichuk/appdata/local/arduino15/packages/arduino/tools/arm-none-eabi-gcc/4.8.3-2014q1/bin/../lib/gcc/arm-none-eabi/4.8.3/armv7-m\libgcc.a(_arm_cmpdf2.o)
                              C:\Users\moseichuk\AppData\Local\Temp\VMBuilds\TestSerial\Arduino_STM32_genericSTM32F103Z\Release\core.a(Print.cpp.o) (__aeabi_dcmplt)
c:/users/moseichuk/appdata/local/arduino15/packages/arduino/tools/arm-none-eabi-gcc/4.8.3-2014q1/bin/../lib/gcc/arm-none-eabi/4.8.3/armv7-m\libgcc.a(_arm_fixdfsi.o)
                              C:\Users\moseichuk\AppData\Local\Temp\VMBuilds\TestSerial\Arduino_STM32_genericSTM32F103Z\Release\core.a(Print.cpp.o) (__aeabi_d2iz)
c:/users/moseichuk/appdata/local/arduino15/packages/arduino/tools/arm-none-eabi-gcc/4.8.3-2014q1/bin/../lib/gcc/arm-none-eabi/4.8.3/armv7-m\libgcc.a(_aeabi_uldivmod.o)
                              C:\Users\moseichuk\AppData\Local\Temp\VMBuilds\TestSerial\Arduino_STM32_genericSTM32F103Z\Release\core.a(Print.cpp.o) (__aeabi_uldivmod)
c:/users/moseichuk/appdata/local/arduino15/packages/arduino/tools/arm-none-eabi-gcc/4.8.3-2014q1/bin/../lib/gcc/arm-none-eabi/4.8.3/armv7-m\libgcc.a(_fixdfdi.o)
                              C:\Users\moseichuk\AppData\Local\Temp\VMBuilds\TestSerial\Arduino_STM32_genericSTM32F103Z\Release\core.a(Print.cpp.o) (__aeabi_d2lz)
c:/users/moseichuk/appdata/local/arduino15/packages/arduino/tools/arm-none-eabi-gcc/4.8.3-2014q1/bin/../lib/gcc/arm-none-eabi/4.8.3/armv7-m\libgcc.a(_fixunsdfdi.o)
                              c:/users/moseichuk/appdata/local/arduino15/packages/arduino/tools/arm-none-eabi-gcc/4.8.3-2014q1/bin/../lib/gcc/arm-none-eabi/4.8.3/armv7-m\libgcc.a(_fixdfdi.o) (__aeabi_d2ulz)
c:/users/moseichuk/appdata/local/arduino15/packages/arduino/tools/arm-none-eabi-gcc/4.8.3-2014q1/bin/../lib/gcc/arm-none-eabi/4.8.3/armv7-m\libgcc.a(bpabi.o)
                              c:/users/moseichuk/appdata/local/arduino15/packages/arduino/tools/arm-none-eabi-gcc/4.8.3-2014q1/bin/../lib/gcc/arm-none-eabi/4.8.3/armv7-m\libgcc.a(_aeabi_uldivmod.o) (__gnu_uldivmod_helper)
c:/users/moseichuk/appdata/local/arduino15/packages/arduino/tools/arm-none-eabi-gcc/4.8.3-2014q1/bin/../lib/gcc/arm-none-eabi/4.8.3/armv7-m\libgcc.a(_dvmd_tls.o)
                              c:/users/moseichuk/appdata/local/arduino15/packages/arduino/tools/arm-none-eabi-gcc/4.8.3-2014q1/bin/../lib/gcc/arm-none-eabi/4.8.3/armv7-m\libgcc.a(_aeabi_uldivmod.o) (__aeabi_ldiv0)
c:/users/moseichuk/appdata/local/arduino15/packages/arduino/tools/arm-none-eabi-gcc/4.8.3-2014q1/bin/../lib/gcc/arm-none-eabi/4.8.3/armv7-m\libgcc.a(_arm_fixunsdfsi.o)
                              c:/users/moseichuk/appdata/local/arduino15/packages/arduino/tools/arm-none-eabi-gcc/4.8.3-2014q1/bin/../lib/gcc/arm-none-eabi/4.8.3/armv7-m\libgcc.a(_fixunsdfdi.o) (__aeabi_d2uiz)
c:/users/moseichuk/appdata/local/arduino15/packages/arduino/tools/arm-none-eabi-gcc/4.8.3-2014q1/bin/../lib/gcc/arm-none-eabi/4.8.3/armv7-m\libgcc.a(_divdi3.o)
                              c:/users/moseichuk/appdata/local/arduino15/packages/arduino/tools/arm-none-eabi-gcc/4.8.3-2014q1/bin/../lib/gcc/arm-none-eabi/4.8.3/armv7-m\libgcc.a(bpabi.o) (__divdi3)
c:/users/moseichuk/appdata/local/arduino15/packages/arduino/tools/arm-none-eabi-gcc/4.8.3-2014q1/bin/../lib/gcc/arm-none-eabi/4.8.3/armv7-m\libgcc.a(_udivdi3.o)
                              c:/users/moseichuk/appdata/local/arduino15/packages/arduino/tools/arm-none-eabi-gcc/4.8.3-2014q1/bin/../lib/gcc/arm-none-eabi/4.8.3/armv7-m\libgcc.a(bpabi.o) (__udivdi3)
c:/users/moseichuk/appdata/local/arduino15/packages/arduino/tools/arm-none-eabi-gcc/4.8.3-2014q1/bin/../lib/gcc/arm-none-eabi/4.8.3/../../../../arm-none-eabi/lib/armv7-m\libc.a(lib_a-errno.o)
                              C:\Users\moseichuk\AppData\Local\Temp\VMBuilds\TestSerial\Arduino_STM32_genericSTM32F103Z\Release\variant\syscalls.c.o (__errno)
c:/users/moseichuk/appdata/local/arduino15/packages/arduino/tools/arm-none-eabi-gcc/4.8.3-2014q1/bin/../lib/gcc/arm-none-eabi/4.8.3/../../../../arm-none-eabi/lib/armv7-m\libc.a(lib_a-exit.o)
                              c:/users/moseichuk/appdata/local/arduino15/packages/arduino/tools/arm-none-eabi-gcc/4.8.3-2014q1/bin/../lib/gcc/arm-none-eabi/4.8.3/../../../../arm-none-eabi/lib/armv7-m/crt0.o (exit)
c:/users/moseichuk/appdata/local/arduino15/packages/arduino/tools/arm-none-eabi-gcc/4.8.3-2014q1/bin/../lib/gcc/arm-none-eabi/4.8.3/../../../../arm-none-eabi/lib/armv7-m\libc.a(lib_a-impure.o)
                              c:/users/moseichuk/appdata/local/arduino15/packages/arduino/tools/arm-none-eabi-gcc/4.8.3-2014q1/bin/../lib/gcc/arm-none-eabi/4.8.3/../../../../arm-none-eabi/lib/armv7-m\libc.a(lib_a-exit.o) (_global_impure_ptr)
c:/users/moseichuk/appdata/local/arduino15/packages/arduino/tools/arm-none-eabi-gcc/4.8.3-2014q1/bin/../lib/gcc/arm-none-eabi/4.8.3/../../../../arm-none-eabi/lib/armv7-m\libc.a(lib_a-init.o)
                              c:/users/moseichuk/appdata/local/arduino15/packages/arduino/tools/arm-none-eabi-gcc/4.8.3-2014q1/bin/../lib/gcc/arm-none-eabi/4.8.3/../../../../arm-none-eabi/lib/armv7-m/crt0.o (__libc_init_array)
c:/users/moseichuk/appdata/local/arduino15/packages/arduino/tools/arm-none-eabi-gcc/4.8.3-2014q1/bin/../lib/gcc/arm-none-eabi/4.8.3/../../../../arm-none-eabi/lib/armv7-m\libc.a(lib_a-memset.o)
                              c:/users/moseichuk/appdata/local/arduino15/packages/arduino/tools/arm-none-eabi-gcc/4.8.3-2014q1/bin/../lib/gcc/arm-none-eabi/4.8.3/../../../../arm-none-eabi/lib/armv7-m/crt0.o (memset)
c:/users/moseichuk/appdata/local/arduino15/packages/arduino/tools/arm-none-eabi-gcc/4.8.3-2014q1/bin/../lib/gcc/arm-none-eabi/4.8.3/../../../../arm-none-eabi/lib/armv7-m\libc.a(lib_a-strlen.o)
                              C:\Users\moseichuk\AppData\Local\Temp\VMBuilds\TestSerial\Arduino_STM32_genericSTM32F103Z\Release\core.a(Print.cpp.o) (strlen)
c:/users/moseichuk/appdata/local/arduino15/packages/arduino/tools/arm-none-eabi-gcc/4.8.3-2014q1/bin/../lib/gcc/arm-none-eabi/4.8.3/../../../../arm-none-eabi/lib/armv7-m\libc.a(lib_a-__call_atexit.o)
                              c:/users/moseichuk/appdata/local/arduino15/packages/arduino/tools/arm-none-eabi-gcc/4.8.3-2014q1/bin/../lib/gcc/arm-none-eabi/4.8.3/../../../../arm-none-eabi/lib/armv7-m\libc.a(lib_a-exit.o) (__call_exitprocs)
c:/users/moseichuk/appdata/local/arduino15/packages/arduino/tools/arm-none-eabi-gcc/4.8.3-2014q1/bin/../lib/gcc/arm-none-eabi/4.8.3/../../../../arm-none-eabi/lib/armv7-m\libc.a(lib_a-atexit.o)
                              c:/users/moseichuk/appdata/local/arduino15/packages/arduino/tools/arm-none-eabi-gcc/4.8.3-2014q1/bin/../lib/gcc/arm-none-eabi/4.8.3/../../../../arm-none-eabi/lib/armv7-m\libc.a(lib_a-__call_atexit.o) (atexit)
c:/users/moseichuk/appdata/local/arduino15/packages/arduino/tools/arm-none-eabi-gcc/4.8.3-2014q1/bin/../lib/gcc/arm-none-eabi/4.8.3/../../../../arm-none-eabi/lib/armv7-m\libc.a(lib_a-fini.o)
                              c:/users/moseichuk/appdata/local/arduino15/packages/arduino/tools/arm-none-eabi-gcc/4.8.3-2014q1/bin/../lib/gcc/arm-none-eabi/4.8.3/../../../../arm-none-eabi/lib/armv7-m\libc.a(lib_a-__call_atexit.o) (__libc_fini_array)
c:/users/moseichuk/appdata/local/arduino15/packages/arduino/tools/arm-none-eabi-gcc/4.8.3-2014q1/bin/../lib/gcc/arm-none-eabi/4.8.3/../../../../arm-none-eabi/lib/armv7-m\libc.a(lib_a-__atexit.o)
                              c:/users/moseichuk/appdata/local/arduino15/packages/arduino/tools/arm-none-eabi-gcc/4.8.3-2014q1/bin/../lib/gcc/arm-none-eabi/4.8.3/../../../../arm-none-eabi/lib/armv7-m\libc.a(lib_a-atexit.o) (__register_exitproc)

Allocating common symbols
Common symbol       size              file

SaveRState          0x2               C:\Users\moseichuk\AppData\Local\Temp\VMBuilds\TestSerial\Arduino_STM32_genericSTM32F103Z\Release\core.a(usb.c.o)
SaveState           0x2               C:\Users\moseichuk\AppData\Local\Temp\VMBuilds\TestSerial\Arduino_STM32_genericSTM32F103Z\Release\core.a(usb_init.c.o)
pProperty           0x4               C:\Users\moseichuk\AppData\Local\Temp\VMBuilds\TestSerial\Arduino_STM32_genericSTM32F103Z\Release\core.a(usb_init.c.o)
EPindex             0x1               C:\Users\moseichuk\AppData\Local\Temp\VMBuilds\TestSerial\Arduino_STM32_genericSTM32F103Z\Release\core.a(usb_init.c.o)
SaveTState          0x2               C:\Users\moseichuk\AppData\Local\Temp\VMBuilds\TestSerial\Arduino_STM32_genericSTM32F103Z\Release\core.a(usb.c.o)
systick_uptime_millis
                    0x4               C:\Users\moseichuk\AppData\Local\Temp\VMBuilds\TestSerial\Arduino_STM32_genericSTM32F103Z\Release\core.a(systick.c.o)
Device_Info         0x1c              C:\Users\moseichuk\AppData\Local\Temp\VMBuilds\TestSerial\Arduino_STM32_genericSTM32F103Z\Release\core.a(usb_init.c.o)
pUser_Standard_Requests
                    0x4               C:\Users\moseichuk\AppData\Local\Temp\VMBuilds\TestSerial\Arduino_STM32_genericSTM32F103Z\Release\core.a(usb_init.c.o)
StatusInfo          0x2               C:\Users\moseichuk\AppData\Local\Temp\VMBuilds\TestSerial\Arduino_STM32_genericSTM32F103Z\Release\core.a(usb_core.c.o)
pInformation        0x4               C:\Users\moseichuk\AppData\Local\Temp\VMBuilds\TestSerial\Arduino_STM32_genericSTM32F103Z\Release\core.a(usb_init.c.o)
ResumeS             0x2               C:\Users\moseichuk\AppData\Local\Temp\VMBuilds\TestSerial\Arduino_STM32_genericSTM32F103Z\Release\core.a(usb.c.o)
wInterrupt_Mask     0x2               C:\Users\moseichuk\AppData\Local\Temp\VMBuilds\TestSerial\Arduino_STM32_genericSTM32F103Z\Release\core.a(usb_init.c.o)

Discarded input sections

 .text          0x00000000        0x0 c:/users/moseichuk/appdata/local/arduino15/packages/arduino/tools/arm-none-eabi-gcc/4.8.3-2014q1/bin/../lib/gcc/arm-none-eabi/4.8.3/armv7-m/crti.o
 .data          0x00000000        0x0 c:/users/moseichuk/appdata/local/arduino15/packages/arduino/tools/arm-none-eabi-gcc/4.8.3-2014q1/bin/../lib/gcc/arm-none-eabi/4.8.3/armv7-m/crti.o
 .bss           0x00000000        0x0 c:/users/moseichuk/appdata/local/arduino15/packages/arduino/tools/arm-none-eabi-gcc/4.8.3-2014q1/bin/../lib/gcc/arm-none-eabi/4.8.3/armv7-m/crti.o
 .data          0x00000000        0x4 c:/users/moseichuk/appdata/local/arduino15/packages/arduino/tools/arm-none-eabi-gcc/4.8.3-2014q1/bin/../lib/gcc/arm-none-eabi/4.8.3/armv7-m/crtbegin.o
 .text          0x00000000       0x74 c:/users/moseichuk/appdata/local/arduino15/packages/arduino/tools/arm-none-eabi-gcc/4.8.3-2014q1/bin/../lib/gcc/arm-none-eabi/4.8.3/../../../../arm-none-eabi/lib/armv7-m/crt0.o
 .data          0x00000000        0x0 c:/users/moseichuk/appdata/local/arduino15/packages/arduino/tools/arm-none-eabi-gcc/4.8.3-2014q1/bin/../lib/gcc/arm-none-eabi/4.8.3/../../../../arm-none-eabi/lib/armv7-m/crt0.o
 .bss           0x00000000        0x0 c:/users/moseichuk/appdata/local/arduino15/packages/arduino/tools/arm-none-eabi-gcc/4.8.3-2014q1/bin/../lib/gcc/arm-none-eabi/4.8.3/../../../../arm-none-eabi/lib/armv7-m/crt0.o
 .ARM.extab     0x00000000        0x0 c:/users/moseichuk/appdata/local/arduino15/packages/arduino/tools/arm-none-eabi-gcc/4.8.3-2014q1/bin/../lib/gcc/arm-none-eabi/4.8.3/../../../../arm-none-eabi/lib/armv7-m/crt0.o
 .ARM.exidx     0x00000000        0x8 c:/users/moseichuk/appdata/local/arduino15/packages/arduino/tools/arm-none-eabi-gcc/4.8.3-2014q1/bin/../lib/gcc/arm-none-eabi/4.8.3/../../../../arm-none-eabi/lib/armv7-m/crt0.o
 .text          0x00000000        0x0 C:\Users\moseichuk\AppData\Local\Temp\VMBuilds\TestSerial\Arduino_STM32_genericSTM32F103Z\Release\TestSerial.cpp.o
 .data          0x00000000        0x0 C:\Users\moseichuk\AppData\Local\Temp\VMBuilds\TestSerial\Arduino_STM32_genericSTM32F103Z\Release\TestSerial.cpp.o
 .bss           0x00000000        0x0 C:\Users\moseichuk\AppData\Local\Temp\VMBuilds\TestSerial\Arduino_STM32_genericSTM32F103Z\Release\TestSerial.cpp.o
 .text          0x00000000        0x0 C:\Users\moseichuk\AppData\Local\Temp\VMBuilds\TestSerial\Arduino_STM32_genericSTM32F103Z\Release\variant\board.cpp.o
 .data          0x00000000        0x0 C:\Users\moseichuk\AppData\Local\Temp\VMBuilds\TestSerial\Arduino_STM32_genericSTM32F103Z\Release\variant\board.cpp.o
 .bss           0x00000000        0x0 C:\Users\moseichuk\AppData\Local\Temp\VMBuilds\TestSerial\Arduino_STM32_genericSTM32F103Z\Release\variant\board.cpp.o
 .USER_FLASH    0x00000000       0x2a C:\Users\moseichuk\AppData\Local\Temp\VMBuilds\TestSerial\Arduino_STM32_genericSTM32F103Z\Release\variant\board.cpp.o
 .text          0x00000000        0x0 C:\Users\moseichuk\AppData\Local\Temp\VMBuilds\TestSerial\Arduino_STM32_genericSTM32F103Z\Release\variant\boards.cpp.o
 .data          0x00000000        0x0 C:\Users\moseichuk\AppData\Local\Temp\VMBuilds\TestSerial\Arduino_STM32_genericSTM32F103Z\Release\variant\boards.cpp.o
 .bss           0x00000000        0x0 C:\Users\moseichuk\AppData\Local\Temp\VMBuilds\TestSerial\Arduino_STM32_genericSTM32F103Z\Release\variant\boards.cpp.o
 .text._Z12boardUsesPinh
                0x00000000       0x1c C:\Users\moseichuk\AppData\Local\Temp\VMBuilds\TestSerial\Arduino_STM32_genericSTM32F103Z\Release\variant\boards.cpp.o
 .text          0x00000000        0x0 C:\Users\moseichuk\AppData\Local\Temp\VMBuilds\TestSerial\Arduino_STM32_genericSTM32F103Z\Release\variant\boards_setup.cpp.o
 .data          0x00000000        0x0 C:\Users\moseichuk\AppData\Local\Temp\VMBuilds\TestSerial\Arduino_STM32_genericSTM32F103Z\Release\variant\boards_setup.cpp.o
 .bss           0x00000000        0x0 C:\Users\moseichuk\AppData\Local\Temp\VMBuilds\TestSerial\Arduino_STM32_genericSTM32F103Z\Release\variant\boards_setup.cpp.o
 .data          0x00000000        0x0 C:\Users\moseichuk\AppData\Local\Temp\VMBuilds\TestSerial\Arduino_STM32_genericSTM32F103Z\Release\variant\start.S.o
 .bss           0x00000000        0x0 C:\Users\moseichuk\AppData\Local\Temp\VMBuilds\TestSerial\Arduino_STM32_genericSTM32F103Z\Release\variant\start.S.o
 .ARM.extab     0x00000000        0x0 C:\Users\moseichuk\AppData\Local\Temp\VMBuilds\TestSerial\Arduino_STM32_genericSTM32F103Z\Release\variant\start.S.o
 .text          0x00000000        0x0 C:\Users\moseichuk\AppData\Local\Temp\VMBuilds\TestSerial\Arduino_STM32_genericSTM32F103Z\Release\variant\start_c.c.o
 .data          0x00000000        0x0 C:\Users\moseichuk\AppData\Local\Temp\VMBuilds\TestSerial\Arduino_STM32_genericSTM32F103Z\Release\variant\start_c.c.o
 .bss           0x00000000        0x0 C:\Users\moseichuk\AppData\Local\Temp\VMBuilds\TestSerial\Arduino_STM32_genericSTM32F103Z\Release\variant\start_c.c.o
 .text          0x00000000        0x0 C:\Users\moseichuk\AppData\Local\Temp\VMBuilds\TestSerial\Arduino_STM32_genericSTM32F103Z\Release\variant\syscalls.c.o
 .data          0x00000000        0x0 C:\Users\moseichuk\AppData\Local\Temp\VMBuilds\TestSerial\Arduino_STM32_genericSTM32F103Z\Release\variant\syscalls.c.o
 .bss           0x00000000        0x0 C:\Users\moseichuk\AppData\Local\Temp\VMBuilds\TestSerial\Arduino_STM32_genericSTM32F103Z\Release\variant\syscalls.c.o
 .text._sbrk    0x00000000       0x44 C:\Users\moseichuk\AppData\Local\Temp\VMBuilds\TestSerial\Arduino_STM32_genericSTM32F103Z\Release\variant\syscalls.c.o
 .text._open    0x00000000        0x8 C:\Users\moseichuk\AppData\Local\Temp\VMBuilds\TestSerial\Arduino_STM32_genericSTM32F103Z\Release\variant\syscalls.c.o
 .text._close   0x00000000        0x4 C:\Users\moseichuk\AppData\Local\Temp\VMBuilds\TestSerial\Arduino_STM32_genericSTM32F103Z\Release\variant\syscalls.c.o
 .text._fstat   0x00000000        0xa C:\Users\moseichuk\AppData\Local\Temp\VMBuilds\TestSerial\Arduino_STM32_genericSTM32F103Z\Release\variant\syscalls.c.o
 .text._isatty  0x00000000        0x4 C:\Users\moseichuk\AppData\Local\Temp\VMBuilds\TestSerial\Arduino_STM32_genericSTM32F103Z\Release\variant\syscalls.c.o
 .text.isatty   0x00000000        0x4 C:\Users\moseichuk\AppData\Local\Temp\VMBuilds\TestSerial\Arduino_STM32_genericSTM32F103Z\Release\variant\syscalls.c.o
 .text._lseek   0x00000000        0x6 C:\Users\moseichuk\AppData\Local\Temp\VMBuilds\TestSerial\Arduino_STM32_genericSTM32F103Z\Release\variant\syscalls.c.o
 .text.getch    0x00000000        0x4 C:\Users\moseichuk\AppData\Local\Temp\VMBuilds\TestSerial\Arduino_STM32_genericSTM32F103Z\Release\variant\syscalls.c.o
 .text._read    0x00000000        0xe C:\Users\moseichuk\AppData\Local\Temp\VMBuilds\TestSerial\Arduino_STM32_genericSTM32F103Z\Release\variant\syscalls.c.o
 .text.putch    0x00000000        0x2 C:\Users\moseichuk\AppData\Local\Temp\VMBuilds\TestSerial\Arduino_STM32_genericSTM32F103Z\Release\variant\syscalls.c.o
 .text.cgets    0x00000000       0x78 C:\Users\moseichuk\AppData\Local\Temp\VMBuilds\TestSerial\Arduino_STM32_genericSTM32F103Z\Release\variant\syscalls.c.o
 .text._write   0x00000000       0x1a C:\Users\moseichuk\AppData\Local\Temp\VMBuilds\TestSerial\Arduino_STM32_genericSTM32F103Z\Release\variant\syscalls.c.o
 .text.fgets    0x00000000        0xc C:\Users\moseichuk\AppData\Local\Temp\VMBuilds\TestSerial\Arduino_STM32_genericSTM32F103Z\Release\variant\syscalls.c.o
 .bss.pbreak.4444
                0x00000000        0x4 C:\Users\moseichuk\AppData\Local\Temp\VMBuilds\TestSerial\Arduino_STM32_genericSTM32F103Z\Release\variant\syscalls.c.o
 .data          0x00000000        0x0 C:\Users\moseichuk\AppData\Local\Temp\VMBuilds\TestSerial\Arduino_STM32_genericSTM32F103Z\Release\core.a(exc.S.o)
 .bss           0x00000000        0x0 C:\Users\moseichuk\AppData\Local\Temp\VMBuilds\TestSerial\Arduino_STM32_genericSTM32F103Z\Release\core.a(exc.S.o)
 .data          0x00000000        0x0 C:\Users\moseichuk\AppData\Local\Temp\VMBuilds\TestSerial\Arduino_STM32_genericSTM32F103Z\Release\core.a(isrs.S.o)
 .bss           0x00000000        0x0 C:\Users\moseichuk\AppData\Local\Temp\VMBuilds\TestSerial\Arduino_STM32_genericSTM32F103Z\Release\core.a(isrs.S.o)
 .text          0x00000000        0x0 C:\Users\moseichuk\AppData\Local\Temp\VMBuilds\TestSerial\Arduino_STM32_genericSTM32F103Z\Release\core.a(vector_table.S.o)
 .data          0x00000000        0x0 C:\Users\moseichuk\AppData\Local\Temp\VMBuilds\TestSerial\Arduino_STM32_genericSTM32F103Z\Release\core.a(vector_table.S.o)
 .bss           0x00000000        0x0 C:\Users\moseichuk\AppData\Local\Temp\VMBuilds\TestSerial\Arduino_STM32_genericSTM32F103Z\Release\core.a(vector_table.S.o)
 .text          0x00000000        0x0 C:\Users\moseichuk\AppData\Local\Temp\VMBuilds\TestSerial\Arduino_STM32_genericSTM32F103Z\Release\core.a(adc.c.o)
 .data          0x00000000        0x0 C:\Users\moseichuk\AppData\Local\Temp\VMBuilds\TestSerial\Arduino_STM32_genericSTM32F103Z\Release\core.a(adc.c.o)
 .bss           0x00000000        0x0 C:\Users\moseichuk\AppData\Local\Temp\VMBuilds\TestSerial\Arduino_STM32_genericSTM32F103Z\Release\core.a(adc.c.o)
 .text.adc_read
                0x00000000       0x20 C:\Users\moseichuk\AppData\Local\Temp\VMBuilds\TestSerial\Arduino_STM32_genericSTM32F103Z\Release\core.a(adc.c.o)
 .text          0x00000000        0x0 C:\Users\moseichuk\AppData\Local\Temp\VMBuilds\TestSerial\Arduino_STM32_genericSTM32F103Z\Release\core.a(adc_f1.c.o)
 .data          0x00000000        0x0 C:\Users\moseichuk\AppData\Local\Temp\VMBuilds\TestSerial\Arduino_STM32_genericSTM32F103Z\Release\core.a(adc_f1.c.o)
 .bss           0x00000000        0x0 C:\Users\moseichuk\AppData\Local\Temp\VMBuilds\TestSerial\Arduino_STM32_genericSTM32F103Z\Release\core.a(adc_f1.c.o)
 .text.adc_enable_irq
                0x00000000       0x30 C:\Users\moseichuk\AppData\Local\Temp\VMBuilds\TestSerial\Arduino_STM32_genericSTM32F103Z\Release\core.a(adc_f1.c.o)
 .text.adc_attach_interrupt
                0x00000000        0xa C:\Users\moseichuk\AppData\Local\Temp\VMBuilds\TestSerial\Arduino_STM32_genericSTM32F103Z\Release\core.a(adc_f1.c.o)
 .text.adc_config_gpio
                0x00000000        0xa C:\Users\moseichuk\AppData\Local\Temp\VMBuilds\TestSerial\Arduino_STM32_genericSTM32F103Z\Release\core.a(adc_f1.c.o)
 .text          0x00000000        0x0 C:\Users\moseichuk\AppData\Local\Temp\VMBuilds\TestSerial\Arduino_STM32_genericSTM32F103Z\Release\core.a(dma_f1.c.o)
 .data          0x00000000        0x0 C:\Users\moseichuk\AppData\Local\Temp\VMBuilds\TestSerial\Arduino_STM32_genericSTM32F103Z\Release\core.a(dma_f1.c.o)
 .bss           0x00000000        0x0 C:\Users\moseichuk\AppData\Local\Temp\VMBuilds\TestSerial\Arduino_STM32_genericSTM32F103Z\Release\core.a(dma_f1.c.o)
 .text.dma_set_priority
                0x00000000       0x18 C:\Users\moseichuk\AppData\Local\Temp\VMBuilds\TestSerial\Arduino_STM32_genericSTM32F103Z\Release\core.a(dma_f1.c.o)
 .text.dma_set_num_transfers
                0x00000000       0x10 C:\Users\moseichuk\AppData\Local\Temp\VMBuilds\TestSerial\Arduino_STM32_genericSTM32F103Z\Release\core.a(dma_f1.c.o)
 .text.dma_attach_interrupt
                0x00000000       0x28 C:\Users\moseichuk\AppData\Local\Temp\VMBuilds\TestSerial\Arduino_STM32_genericSTM32F103Z\Release\core.a(dma_f1.c.o)
 .text.dma_detach_interrupt
                0x00000000       0x1c C:\Users\moseichuk\AppData\Local\Temp\VMBuilds\TestSerial\Arduino_STM32_genericSTM32F103Z\Release\core.a(dma_f1.c.o)
 .text.dma_enable
                0x00000000       0x18 C:\Users\moseichuk\AppData\Local\Temp\VMBuilds\TestSerial\Arduino_STM32_genericSTM32F103Z\Release\core.a(dma_f1.c.o)
 .text.dma_disable
                0x00000000       0x18 C:\Users\moseichuk\AppData\Local\Temp\VMBuilds\TestSerial\Arduino_STM32_genericSTM32F103Z\Release\core.a(dma_f1.c.o)
 .text.dma_tube_cfg
                0x00000000      0x15c C:\Users\moseichuk\AppData\Local\Temp\VMBuilds\TestSerial\Arduino_STM32_genericSTM32F103Z\Release\core.a(dma_f1.c.o)
 .text.dma_get_irq_cause
                0x00000000       0x3c C:\Users\moseichuk\AppData\Local\Temp\VMBuilds\TestSerial\Arduino_STM32_genericSTM32F103Z\Release\core.a(dma_f1.c.o)
 .text.dma_set_mem_addr
                0x00000000       0x10 C:\Users\moseichuk\AppData\Local\Temp\VMBuilds\TestSerial\Arduino_STM32_genericSTM32F103Z\Release\core.a(dma_f1.c.o)
 .text.dma_set_per_addr
                0x00000000       0x10 C:\Users\moseichuk\AppData\Local\Temp\VMBuilds\TestSerial\Arduino_STM32_genericSTM32F103Z\Release\core.a(dma_f1.c.o)
 .text.dma_setup_transfer
                0x00000000       0x36 C:\Users\moseichuk\AppData\Local\Temp\VMBuilds\TestSerial\Arduino_STM32_genericSTM32F103Z\Release\core.a(dma_f1.c.o)
 .text          0x00000000        0x0 C:\Users\moseichuk\AppData\Local\Temp\VMBuilds\TestSerial\Arduino_STM32_genericSTM32F103Z\Release\core.a(exti.c.o)
 .data          0x00000000        0x0 C:\Users\moseichuk\AppData\Local\Temp\VMBuilds\TestSerial\Arduino_STM32_genericSTM32F103Z\Release\core.a(exti.c.o)
 .bss           0x00000000        0x0 C:\Users\moseichuk\AppData\Local\Temp\VMBuilds\TestSerial\Arduino_STM32_genericSTM32F103Z\Release\core.a(exti.c.o)
 .text.exti_attach_callback
                0x00000000       0xac C:\Users\moseichuk\AppData\Local\Temp\VMBuilds\TestSerial\Arduino_STM32_genericSTM32F103Z\Release\core.a(exti.c.o)
 .text.exti_attach_interrupt
                0x00000000       0x10 C:\Users\moseichuk\AppData\Local\Temp\VMBuilds\TestSerial\Arduino_STM32_genericSTM32F103Z\Release\core.a(exti.c.o)
 .text.exti_detach_interrupt
                0x00000000       0x28 C:\Users\moseichuk\AppData\Local\Temp\VMBuilds\TestSerial\Arduino_STM32_genericSTM32F103Z\Release\core.a(exti.c.o)
 .text.exti_do_select
                0x00000000       0x1a C:\Users\moseichuk\AppData\Local\Temp\VMBuilds\TestSerial\Arduino_STM32_genericSTM32F103Z\Release\core.a(exti.c.o)
 .text          0x00000000        0x0 C:\Users\moseichuk\AppData\Local\Temp\VMBuilds\TestSerial\Arduino_STM32_genericSTM32F103Z\Release\core.a(exti_f1.c.o)
 .data          0x00000000        0x0 C:\Users\moseichuk\AppData\Local\Temp\VMBuilds\TestSerial\Arduino_STM32_genericSTM32F103Z\Release\core.a(exti_f1.c.o)
 .bss           0x00000000        0x0 C:\Users\moseichuk\AppData\Local\Temp\VMBuilds\TestSerial\Arduino_STM32_genericSTM32F103Z\Release\core.a(exti_f1.c.o)
 .text.exti_select
                0x00000000       0x18 C:\Users\moseichuk\AppData\Local\Temp\VMBuilds\TestSerial\Arduino_STM32_genericSTM32F103Z\Release\core.a(exti_f1.c.o)
 .text          0x00000000        0x0 C:\Users\moseichuk\AppData\Local\Temp\VMBuilds\TestSerial\Arduino_STM32_genericSTM32F103Z\Release\core.a(flash.c.o)
 .data          0x00000000        0x0 C:\Users\moseichuk\AppData\Local\Temp\VMBuilds\TestSerial\Arduino_STM32_genericSTM32F103Z\Release\core.a(flash.c.o)
 .bss           0x00000000        0x0 C:\Users\moseichuk\AppData\Local\Temp\VMBuilds\TestSerial\Arduino_STM32_genericSTM32F103Z\Release\core.a(flash.c.o)
 .text          0x00000000        0x0 C:\Users\moseichuk\AppData\Local\Temp\VMBuilds\TestSerial\Arduino_STM32_genericSTM32F103Z\Release\core.a(gpio_f1.c.o)
 .data          0x00000000        0x0 C:\Users\moseichuk\AppData\Local\Temp\VMBuilds\TestSerial\Arduino_STM32_genericSTM32F103Z\Release\core.a(gpio_f1.c.o)
 .bss           0x00000000        0x0 C:\Users\moseichuk\AppData\Local\Temp\VMBuilds\TestSerial\Arduino_STM32_genericSTM32F103Z\Release\core.a(gpio_f1.c.o)
 .text.gpio_get_mode
                0x00000000       0x2a C:\Users\moseichuk\AppData\Local\Temp\VMBuilds\TestSerial\Arduino_STM32_genericSTM32F103Z\Release\core.a(gpio_f1.c.o)
 .text.afio_remap
                0x00000000       0x20 C:\Users\moseichuk\AppData\Local\Temp\VMBuilds\TestSerial\Arduino_STM32_genericSTM32F103Z\Release\core.a(gpio_f1.c.o)
 .rodata.GPIOA  0x00000000        0x4 C:\Users\moseichuk\AppData\Local\Temp\VMBuilds\TestSerial\Arduino_STM32_genericSTM32F103Z\Release\core.a(gpio_f1.c.o)
 .rodata.GPIOD  0x00000000        0x4 C:\Users\moseichuk\AppData\Local\Temp\VMBuilds\TestSerial\Arduino_STM32_genericSTM32F103Z\Release\core.a(gpio_f1.c.o)
 .rodata.GPIOE  0x00000000        0x4 C:\Users\moseichuk\AppData\Local\Temp\VMBuilds\TestSerial\Arduino_STM32_genericSTM32F103Z\Release\core.a(gpio_f1.c.o)
 .rodata.GPIOF  0x00000000        0x4 C:\Users\moseichuk\AppData\Local\Temp\VMBuilds\TestSerial\Arduino_STM32_genericSTM32F103Z\Release\core.a(gpio_f1.c.o)
 .rodata.GPIOG  0x00000000        0x4 C:\Users\moseichuk\AppData\Local\Temp\VMBuilds\TestSerial\Arduino_STM32_genericSTM32F103Z\Release\core.a(gpio_f1.c.o)
 .text          0x00000000        0x0 C:\Users\moseichuk\AppData\Local\Temp\VMBuilds\TestSerial\Arduino_STM32_genericSTM32F103Z\Release\core.a(i2c_f1.c.o)
 .data          0x00000000        0x0 C:\Users\moseichuk\AppData\Local\Temp\VMBuilds\TestSerial\Arduino_STM32_genericSTM32F103Z\Release\core.a(i2c_f1.c.o)
 .bss           0x00000000        0x0 C:\Users\moseichuk\AppData\Local\Temp\VMBuilds\TestSerial\Arduino_STM32_genericSTM32F103Z\Release\core.a(i2c_f1.c.o)
 .text.i2c_config_gpios
                0x00000000       0x58 C:\Users\moseichuk\AppData\Local\Temp\VMBuilds\TestSerial\Arduino_STM32_genericSTM32F103Z\Release\core.a(i2c_f1.c.o)
 .text.i2c_master_release_bus
                0x00000000       0x4c C:\Users\moseichuk\AppData\Local\Temp\VMBuilds\TestSerial\Arduino_STM32_genericSTM32F103Z\Release\core.a(i2c_f1.c.o)
 .rodata.I2C1   0x00000000        0x4 C:\Users\moseichuk\AppData\Local\Temp\VMBuilds\TestSerial\Arduino_STM32_genericSTM32F103Z\Release\core.a(i2c_f1.c.o)
 .rodata.I2C2   0x00000000        0x4 C:\Users\moseichuk\AppData\Local\Temp\VMBuilds\TestSerial\Arduino_STM32_genericSTM32F103Z\Release\core.a(i2c_f1.c.o)
 .text          0x00000000        0x0 C:\Users\moseichuk\AppData\Local\Temp\VMBuilds\TestSerial\Arduino_STM32_genericSTM32F103Z\Release\core.a(nvic.c.o)
 .data          0x00000000        0x0 C:\Users\moseichuk\AppData\Local\Temp\VMBuilds\TestSerial\Arduino_STM32_genericSTM32F103Z\Release\core.a(nvic.c.o)
 .bss           0x00000000        0x0 C:\Users\moseichuk\AppData\Local\Temp\VMBuilds\TestSerial\Arduino_STM32_genericSTM32F103Z\Release\core.a(nvic.c.o)
 .text.nvic_set_vector_table
                0x00000000       0x14 C:\Users\moseichuk\AppData\Local\Temp\VMBuilds\TestSerial\Arduino_STM32_genericSTM32F103Z\Release\core.a(nvic.c.o)
 .text          0x00000000        0x0 C:\Users\moseichuk\AppData\Local\Temp\VMBuilds\TestSerial\Arduino_STM32_genericSTM32F103Z\Release\core.a(rcc.c.o)
 .data          0x00000000        0x0 C:\Users\moseichuk\AppData\Local\Temp\VMBuilds\TestSerial\Arduino_STM32_genericSTM32F103Z\Release\core.a(rcc.c.o)
 .bss           0x00000000        0x0 C:\Users\moseichuk\AppData\Local\Temp\VMBuilds\TestSerial\Arduino_STM32_genericSTM32F103Z\Release\core.a(rcc.c.o)
 .text.rcc_is_clk_on
                0x00000000       0x1e C:\Users\moseichuk\AppData\Local\Temp\VMBuilds\TestSerial\Arduino_STM32_genericSTM32F103Z\Release\core.a(rcc.c.o)
 .text          0x00000000        0x0 C:\Users\moseichuk\AppData\Local\Temp\VMBuilds\TestSerial\Arduino_STM32_genericSTM32F103Z\Release\core.a(rcc_f1.c.o)
 .data          0x00000000        0x0 C:\Users\moseichuk\AppData\Local\Temp\VMBuilds\TestSerial\Arduino_STM32_genericSTM32F103Z\Release\core.a(rcc_f1.c.o)
 .bss           0x00000000        0x0 C:\Users\moseichuk\AppData\Local\Temp\VMBuilds\TestSerial\Arduino_STM32_genericSTM32F103Z\Release\core.a(rcc_f1.c.o)
 .text.rcc_clk_init
                0x00000000       0x3c C:\Users\moseichuk\AppData\Local\Temp\VMBuilds\TestSerial\Arduino_STM32_genericSTM32F103Z\Release\core.a(rcc_f1.c.o)
 .text          0x00000000        0x0 C:\Users\moseichuk\AppData\Local\Temp\VMBuilds\TestSerial\Arduino_STM32_genericSTM32F103Z\Release\core.a(systick.c.o)
 .data          0x00000000        0x0 C:\Users\moseichuk\AppData\Local\Temp\VMBuilds\TestSerial\Arduino_STM32_genericSTM32F103Z\Release\core.a(systick.c.o)
 .bss           0x00000000        0x0 C:\Users\moseichuk\AppData\Local\Temp\VMBuilds\TestSerial\Arduino_STM32_genericSTM32F103Z\Release\core.a(systick.c.o)
 .text.systick_disable
                0x00000000        0xc C:\Users\moseichuk\AppData\Local\Temp\VMBuilds\TestSerial\Arduino_STM32_genericSTM32F103Z\Release\core.a(systick.c.o)
 .text.systick_enable
                0x00000000        0xc C:\Users\moseichuk\AppData\Local\Temp\VMBuilds\TestSerial\Arduino_STM32_genericSTM32F103Z\Release\core.a(systick.c.o)
 .text.systick_attach_callback
                0x00000000        0xc C:\Users\moseichuk\AppData\Local\Temp\VMBuilds\TestSerial\Arduino_STM32_genericSTM32F103Z\Release\core.a(systick.c.o)
 .text          0x00000000        0x0 C:\Users\moseichuk\AppData\Local\Temp\VMBuilds\TestSerial\Arduino_STM32_genericSTM32F103Z\Release\core.a(timer.c.o)
 .data          0x00000000        0x0 C:\Users\moseichuk\AppData\Local\Temp\VMBuilds\TestSerial\Arduino_STM32_genericSTM32F103Z\Release\core.a(timer.c.o)
 .bss           0x00000000        0x0 C:\Users\moseichuk\AppData\Local\Temp\VMBuilds\TestSerial\Arduino_STM32_genericSTM32F103Z\Release\core.a(timer.c.o)
 .text.timer_oc_set_mode
                0x00000000       0x3a C:\Users\moseichuk\AppData\Local\Temp\VMBuilds\TestSerial\Arduino_STM32_genericSTM32F103Z\Release\core.a(timer.c.o)
 .text.timer_cc_enable
                0x00000000       0x1c C:\Users\moseichuk\AppData\Local\Temp\VMBuilds\TestSerial\Arduino_STM32_genericSTM32F103Z\Release\core.a(timer.c.o)
 .text.timer_disable
                0x00000000       0x12 C:\Users\moseichuk\AppData\Local\Temp\VMBuilds\TestSerial\Arduino_STM32_genericSTM32F103Z\Release\core.a(timer.c.o)
 .text.timer_attach_interrupt
                0x00000000       0xd8 C:\Users\moseichuk\AppData\Local\Temp\VMBuilds\TestSerial\Arduino_STM32_genericSTM32F103Z\Release\core.a(timer.c.o)
 .text.timer_detach_interrupt
                0x00000000       0x1e C:\Users\moseichuk\AppData\Local\Temp\VMBuilds\TestSerial\Arduino_STM32_genericSTM32F103Z\Release\core.a(timer.c.o)
 .text.get_direction
                0x00000000        0xe C:\Users\moseichuk\AppData\Local\Temp\VMBuilds\TestSerial\Arduino_STM32_genericSTM32F103Z\Release\core.a(timer.c.o)
 .text.input_capture_mode
                0x00000000       0x1a C:\Users\moseichuk\AppData\Local\Temp\VMBuilds\TestSerial\Arduino_STM32_genericSTM32F103Z\Release\core.a(timer.c.o)
 .text.timer_set_mode
                0x00000000       0x8c C:\Users\moseichuk\AppData\Local\Temp\VMBuilds\TestSerial\Arduino_STM32_genericSTM32F103Z\Release\core.a(timer.c.o)
 .rodata.TIMER1
                0x00000000        0x4 C:\Users\moseichuk\AppData\Local\Temp\VMBuilds\TestSerial\Arduino_STM32_genericSTM32F103Z\Release\core.a(timer.c.o)
 .rodata.TIMER2
                0x00000000        0x4 C:\Users\moseichuk\AppData\Local\Temp\VMBuilds\TestSerial\Arduino_STM32_genericSTM32F103Z\Release\core.a(timer.c.o)
 .rodata.TIMER3
                0x00000000        0x4 C:\Users\moseichuk\AppData\Local\Temp\VMBuilds\TestSerial\Arduino_STM32_genericSTM32F103Z\Release\core.a(timer.c.o)
 .rodata.TIMER4
                0x00000000        0x4 C:\Users\moseichuk\AppData\Local\Temp\VMBuilds\TestSerial\Arduino_STM32_genericSTM32F103Z\Release\core.a(timer.c.o)
 .rodata.TIMER5
                0x00000000        0x4 C:\Users\moseichuk\AppData\Local\Temp\VMBuilds\TestSerial\Arduino_STM32_genericSTM32F103Z\Release\core.a(timer.c.o)
 .rodata.TIMER6
                0x00000000        0x4 C:\Users\moseichuk\AppData\Local\Temp\VMBuilds\TestSerial\Arduino_STM32_genericSTM32F103Z\Release\core.a(timer.c.o)
 .rodata.TIMER7
                0x00000000        0x4 C:\Users\moseichuk\AppData\Local\Temp\VMBuilds\TestSerial\Arduino_STM32_genericSTM32F103Z\Release\core.a(timer.c.o)
 .rodata.TIMER8
                0x00000000        0x4 C:\Users\moseichuk\AppData\Local\Temp\VMBuilds\TestSerial\Arduino_STM32_genericSTM32F103Z\Release\core.a(timer.c.o)
 .text          0x00000000        0x0 C:\Users\moseichuk\AppData\Local\Temp\VMBuilds\TestSerial\Arduino_STM32_genericSTM32F103Z\Release\core.a(usart_f1.c.o)
 .data          0x00000000        0x0 C:\Users\moseichuk\AppData\Local\Temp\VMBuilds\TestSerial\Arduino_STM32_genericSTM32F103Z\Release\core.a(usart_f1.c.o)
 .bss           0x00000000        0x0 C:\Users\moseichuk\AppData\Local\Temp\VMBuilds\TestSerial\Arduino_STM32_genericSTM32F103Z\Release\core.a(usart_f1.c.o)
 .text.usart_config_gpios_async
                0x00000000       0x4a C:\Users\moseichuk\AppData\Local\Temp\VMBuilds\TestSerial\Arduino_STM32_genericSTM32F103Z\Release\core.a(usart_f1.c.o)
 .text.usart_set_baud_rate
                0x00000000       0x3c C:\Users\moseichuk\AppData\Local\Temp\VMBuilds\TestSerial\Arduino_STM32_genericSTM32F103Z\Release\core.a(usart_f1.c.o)
 .text.usart_foreach
                0x00000000       0x38 C:\Users\moseichuk\AppData\Local\Temp\VMBuilds\TestSerial\Arduino_STM32_genericSTM32F103Z\Release\core.a(usart_f1.c.o)
 .text          0x00000000        0x0 C:\Users\moseichuk\AppData\Local\Temp\VMBuilds\TestSerial\Arduino_STM32_genericSTM32F103Z\Release\core.a(usart_private.c.o)
 .data          0x00000000        0x0 C:\Users\moseichuk\AppData\Local\Temp\VMBuilds\TestSerial\Arduino_STM32_genericSTM32F103Z\Release\core.a(usart_private.c.o)
 .bss           0x00000000        0x0 C:\Users\moseichuk\AppData\Local\Temp\VMBuilds\TestSerial\Arduino_STM32_genericSTM32F103Z\Release\core.a(usart_private.c.o)
 .text._usart_clock_freq
                0x00000000       0x24 C:\Users\moseichuk\AppData\Local\Temp\VMBuilds\TestSerial\Arduino_STM32_genericSTM32F103Z\Release\core.a(usart_private.c.o)
 .text          0x00000000        0x0 C:\Users\moseichuk\AppData\Local\Temp\VMBuilds\TestSerial\Arduino_STM32_genericSTM32F103Z\Release\core.a(util.c.o)
 .data          0x00000000        0x0 C:\Users\moseichuk\AppData\Local\Temp\VMBuilds\TestSerial\Arduino_STM32_genericSTM32F103Z\Release\core.a(util.c.o)
 .bss           0x00000000        0x0 C:\Users\moseichuk\AppData\Local\Temp\VMBuilds\TestSerial\Arduino_STM32_genericSTM32F103Z\Release\core.a(util.c.o)
 .text.usart_putc
                0x00000000       0x1c C:\Users\moseichuk\AppData\Local\Temp\VMBuilds\TestSerial\Arduino_STM32_genericSTM32F103Z\Release\core.a(util.c.o)
 .text.usart_putstr
                0x00000000       0x16 C:\Users\moseichuk\AppData\Local\Temp\VMBuilds\TestSerial\Arduino_STM32_genericSTM32F103Z\Release\core.a(util.c.o)
 .text._fail    0x00000000       0x64 C:\Users\moseichuk\AppData\Local\Temp\VMBuilds\TestSerial\Arduino_STM32_genericSTM32F103Z\Release\core.a(util.c.o)
 .text.__assert_func
                0x00000000        0x8 C:\Users\moseichuk\AppData\Local\Temp\VMBuilds\TestSerial\Arduino_STM32_genericSTM32F103Z\Release\core.a(util.c.o)
 .text.abort    0x00000000       0x1c C:\Users\moseichuk\AppData\Local\Temp\VMBuilds\TestSerial\Arduino_STM32_genericSTM32F103Z\Release\core.a(util.c.o)
 .rodata.str1.1
                0x00000000       0x42 C:\Users\moseichuk\AppData\Local\Temp\VMBuilds\TestSerial\Arduino_STM32_genericSTM32F103Z\Release\core.a(util.c.o)
 .text          0x00000000        0x0 C:\Users\moseichuk\AppData\Local\Temp\VMBuilds\TestSerial\Arduino_STM32_genericSTM32F103Z\Release\core.a(usb.c.o)
 .data          0x00000000        0x0 C:\Users\moseichuk\AppData\Local\Temp\VMBuilds\TestSerial\Arduino_STM32_genericSTM32F103Z\Release\core.a(usb.c.o)
 .bss           0x00000000        0x0 C:\Users\moseichuk\AppData\Local\Temp\VMBuilds\TestSerial\Arduino_STM32_genericSTM32F103Z\Release\core.a(usb.c.o)
 .text.usb_power_off
                0x00000000       0x14 C:\Users\moseichuk\AppData\Local\Temp\VMBuilds\TestSerial\Arduino_STM32_genericSTM32F103Z\Release\core.a(usb.c.o)
 .text          0x00000000        0x0 C:\Users\moseichuk\AppData\Local\Temp\VMBuilds\TestSerial\Arduino_STM32_genericSTM32F103Z\Release\core.a(usb_cdcacm.c.o)
 .data          0x00000000        0x0 C:\Users\moseichuk\AppData\Local\Temp\VMBuilds\TestSerial\Arduino_STM32_genericSTM32F103Z\Release\core.a(usb_cdcacm.c.o)
 .bss           0x00000000        0x0 C:\Users\moseichuk\AppData\Local\Temp\VMBuilds\TestSerial\Arduino_STM32_genericSTM32F103Z\Release\core.a(usb_cdcacm.c.o)
 .text.usb_cdcacm_disable
                0x00000000       0x20 C:\Users\moseichuk\AppData\Local\Temp\VMBuilds\TestSerial\Arduino_STM32_genericSTM32F103Z\Release\core.a(usb_cdcacm.c.o)
 .text.usb_cdcacm_putc
                0x00000000       0x1a C:\Users\moseichuk\AppData\Local\Temp\VMBuilds\TestSerial\Arduino_STM32_genericSTM32F103Z\Release\core.a(usb_cdcacm.c.o)
 .text.usb_cdcacm_is_transmitting
                0x00000000       0x14 C:\Users\moseichuk\AppData\Local\Temp\VMBuilds\TestSerial\Arduino_STM32_genericSTM32F103Z\Release\core.a(usb_cdcacm.c.o)
 .text.usb_cdcacm_get_pending
                0x00000000       0x18 C:\Users\moseichuk\AppData\Local\Temp\VMBuilds\TestSerial\Arduino_STM32_genericSTM32F103Z\Release\core.a(usb_cdcacm.c.o)
 .text.usb_cdcacm_peek_char
                0x00000000       0x24 C:\Users\moseichuk\AppData\Local\Temp\VMBuilds\TestSerial\Arduino_STM32_genericSTM32F103Z\Release\core.a(usb_cdcacm.c.o)
 .text.usb_cdcacm_get_rts
                0x00000000       0x10 C:\Users\moseichuk\AppData\Local\Temp\VMBuilds\TestSerial\Arduino_STM32_genericSTM32F103Z\Release\core.a(usb_cdcacm.c.o)
 .text.usb_cdcacm_get_line_coding
                0x00000000       0x18 C:\Users\moseichuk\AppData\Local\Temp\VMBuilds\TestSerial\Arduino_STM32_genericSTM32F103Z\Release\core.a(usb_cdcacm.c.o)
 .text.usb_cdcacm_get_baud
                0x00000000        0xc C:\Users\moseichuk\AppData\Local\Temp\VMBuilds\TestSerial\Arduino_STM32_genericSTM32F103Z\Release\core.a(usb_cdcacm.c.o)
 .text.usb_cdcacm_get_stop_bits
                0x00000000        0xc C:\Users\moseichuk\AppData\Local\Temp\VMBuilds\TestSerial\Arduino_STM32_genericSTM32F103Z\Release\core.a(usb_cdcacm.c.o)
 .text.usb_cdcacm_get_parity
                0x00000000        0xc C:\Users\moseichuk\AppData\Local\Temp\VMBuilds\TestSerial\Arduino_STM32_genericSTM32F103Z\Release\core.a(usb_cdcacm.c.o)
 .text.usb_cdcacm_get_n_data_bits
                0x00000000        0xc C:\Users\moseichuk\AppData\Local\Temp\VMBuilds\TestSerial\Arduino_STM32_genericSTM32F103Z\Release\core.a(usb_cdcacm.c.o)
 .text          0x00000000        0x0 C:\Users\moseichuk\AppData\Local\Temp\VMBuilds\TestSerial\Arduino_STM32_genericSTM32F103Z\Release\core.a(usb_reg_map.c.o)
 .data          0x00000000        0x0 C:\Users\moseichuk\AppData\Local\Temp\VMBuilds\TestSerial\Arduino_STM32_genericSTM32F103Z\Release\core.a(usb_reg_map.c.o)
 .bss           0x00000000        0x0 C:\Users\moseichuk\AppData\Local\Temp\VMBuilds\TestSerial\Arduino_STM32_genericSTM32F103Z\Release\core.a(usb_reg_map.c.o)
 .text          0x00000000        0x0 C:\Users\moseichuk\AppData\Local\Temp\VMBuilds\TestSerial\Arduino_STM32_genericSTM32F103Z\Release\core.a(usb_core.c.o)
 .data          0x00000000        0x0 C:\Users\moseichuk\AppData\Local\Temp\VMBuilds\TestSerial\Arduino_STM32_genericSTM32F103Z\Release\core.a(usb_core.c.o)
 .bss           0x00000000        0x0 C:\Users\moseichuk\AppData\Local\Temp\VMBuilds\TestSerial\Arduino_STM32_genericSTM32F103Z\Release\core.a(usb_core.c.o)
 .text          0x00000000        0x0 C:\Users\moseichuk\AppData\Local\Temp\VMBuilds\TestSerial\Arduino_STM32_genericSTM32F103Z\Release\core.a(usb_init.c.o)
 .data          0x00000000        0x0 C:\Users\moseichuk\AppData\Local\Temp\VMBuilds\TestSerial\Arduino_STM32_genericSTM32F103Z\Release\core.a(usb_init.c.o)
 .bss           0x00000000        0x0 C:\Users\moseichuk\AppData\Local\Temp\VMBuilds\TestSerial\Arduino_STM32_genericSTM32F103Z\Release\core.a(usb_init.c.o)
 .text.USB_Init
                0x00000000       0x38 C:\Users\moseichuk\AppData\Local\Temp\VMBuilds\TestSerial\Arduino_STM32_genericSTM32F103Z\Release\core.a(usb_init.c.o)
 .text          0x00000000        0x0 C:\Users\moseichuk\AppData\Local\Temp\VMBuilds\TestSerial\Arduino_STM32_genericSTM32F103Z\Release\core.a(usb_mem.c.o)
 .data          0x00000000        0x0 C:\Users\moseichuk\AppData\Local\Temp\VMBuilds\TestSerial\Arduino_STM32_genericSTM32F103Z\Release\core.a(usb_mem.c.o)
 .bss           0x00000000        0x0 C:\Users\moseichuk\AppData\Local\Temp\VMBuilds\TestSerial\Arduino_STM32_genericSTM32F103Z\Release\core.a(usb_mem.c.o)
 .text          0x00000000        0x0 C:\Users\moseichuk\AppData\Local\Temp\VMBuilds\TestSerial\Arduino_STM32_genericSTM32F103Z\Release\core.a(usb_regs.c.o)
 .data          0x00000000        0x0 C:\Users\moseichuk\AppData\Local\Temp\VMBuilds\TestSerial\Arduino_STM32_genericSTM32F103Z\Release\core.a(usb_regs.c.o)
 .bss           0x00000000        0x0 C:\Users\moseichuk\AppData\Local\Temp\VMBuilds\TestSerial\Arduino_STM32_genericSTM32F103Z\Release\core.a(usb_regs.c.o)
 .text.SetCNTR  0x00000000        0xc C:\Users\moseichuk\AppData\Local\Temp\VMBuilds\TestSerial\Arduino_STM32_genericSTM32F103Z\Release\core.a(usb_regs.c.o)
 .text.GetCNTR  0x00000000        0xc C:\Users\moseichuk\AppData\Local\Temp\VMBuilds\TestSerial\Arduino_STM32_genericSTM32F103Z\Release\core.a(usb_regs.c.o)
 .text.SetISTR  0x00000000        0xc C:\Users\moseichuk\AppData\Local\Temp\VMBuilds\TestSerial\Arduino_STM32_genericSTM32F103Z\Release\core.a(usb_regs.c.o)
 .text.GetISTR  0x00000000        0xc C:\Users\moseichuk\AppData\Local\Temp\VMBuilds\TestSerial\Arduino_STM32_genericSTM32F103Z\Release\core.a(usb_regs.c.o)
 .text.GetFNR   0x00000000        0xc C:\Users\moseichuk\AppData\Local\Temp\VMBuilds\TestSerial\Arduino_STM32_genericSTM32F103Z\Release\core.a(usb_regs.c.o)
 .text.SetDADDR
                0x00000000        0xc C:\Users\moseichuk\AppData\Local\Temp\VMBuilds\TestSerial\Arduino_STM32_genericSTM32F103Z\Release\core.a(usb_regs.c.o)
 .text.GetDADDR
                0x00000000        0xc C:\Users\moseichuk\AppData\Local\Temp\VMBuilds\TestSerial\Arduino_STM32_genericSTM32F103Z\Release\core.a(usb_regs.c.o)
 .text.SetBTABLE
                0x00000000       0x10 C:\Users\moseichuk\AppData\Local\Temp\VMBuilds\TestSerial\Arduino_STM32_genericSTM32F103Z\Release\core.a(usb_regs.c.o)
 .text.GetBTABLE
                0x00000000        0xc C:\Users\moseichuk\AppData\Local\Temp\VMBuilds\TestSerial\Arduino_STM32_genericSTM32F103Z\Release\core.a(usb_regs.c.o)
 .text.SetENDPOINT
                0x00000000        0xe C:\Users\moseichuk\AppData\Local\Temp\VMBuilds\TestSerial\Arduino_STM32_genericSTM32F103Z\Release\core.a(usb_regs.c.o)
 .text.GetENDPOINT
                0x00000000       0x10 C:\Users\moseichuk\AppData\Local\Temp\VMBuilds\TestSerial\Arduino_STM32_genericSTM32F103Z\Release\core.a(usb_regs.c.o)
 .text.SetEPType
                0x00000000       0x1c C:\Users\moseichuk\AppData\Local\Temp\VMBuilds\TestSerial\Arduino_STM32_genericSTM32F103Z\Release\core.a(usb_regs.c.o)
 .text.GetEPType
                0x00000000       0x12 C:\Users\moseichuk\AppData\Local\Temp\VMBuilds\TestSerial\Arduino_STM32_genericSTM32F103Z\Release\core.a(usb_regs.c.o)
 .text.SetEPRxStatus
                0x00000000       0x2a C:\Users\moseichuk\AppData\Local\Temp\VMBuilds\TestSerial\Arduino_STM32_genericSTM32F103Z\Release\core.a(usb_regs.c.o)
 .text.SetDouBleBuffEPStall
                0x00000000       0x24 C:\Users\moseichuk\AppData\Local\Temp\VMBuilds\TestSerial\Arduino_STM32_genericSTM32F103Z\Release\core.a(usb_regs.c.o)
 .text.GetEPTxStatus
                0x00000000       0x12 C:\Users\moseichuk\AppData\Local\Temp\VMBuilds\TestSerial\Arduino_STM32_genericSTM32F103Z\Release\core.a(usb_regs.c.o)
 .text.GetEPRxStatus
                0x00000000       0x12 C:\Users\moseichuk\AppData\Local\Temp\VMBuilds\TestSerial\Arduino_STM32_genericSTM32F103Z\Release\core.a(usb_regs.c.o)
 .text.SetEPTxValid
                0x00000000       0x1e C:\Users\moseichuk\AppData\Local\Temp\VMBuilds\TestSerial\Arduino_STM32_genericSTM32F103Z\Release\core.a(usb_regs.c.o)
 .text.SetEPRxValid
                0x00000000       0x1e C:\Users\moseichuk\AppData\Local\Temp\VMBuilds\TestSerial\Arduino_STM32_genericSTM32F103Z\Release\core.a(usb_regs.c.o)
 .text.SetEP_KIND
                0x00000000       0x1e C:\Users\moseichuk\AppData\Local\Temp\VMBuilds\TestSerial\Arduino_STM32_genericSTM32F103Z\Release\core.a(usb_regs.c.o)
 .text.ClearEP_KIND
                0x00000000       0x1c C:\Users\moseichuk\AppData\Local\Temp\VMBuilds\TestSerial\Arduino_STM32_genericSTM32F103Z\Release\core.a(usb_regs.c.o)
 .text.Clear_Status_Out
                0x00000000       0x1c C:\Users\moseichuk\AppData\Local\Temp\VMBuilds\TestSerial\Arduino_STM32_genericSTM32F103Z\Release\core.a(usb_regs.c.o)
 .text.Set_Status_Out
                0x00000000       0x1e C:\Users\moseichuk\AppData\Local\Temp\VMBuilds\TestSerial\Arduino_STM32_genericSTM32F103Z\Release\core.a(usb_regs.c.o)
 .text.SetEPDoubleBuff
                0x00000000       0x1e C:\Users\moseichuk\AppData\Local\Temp\VMBuilds\TestSerial\Arduino_STM32_genericSTM32F103Z\Release\core.a(usb_regs.c.o)
 .text.ClearEPDoubleBuff
                0x00000000       0x1c C:\Users\moseichuk\AppData\Local\Temp\VMBuilds\TestSerial\Arduino_STM32_genericSTM32F103Z\Release\core.a(usb_regs.c.o)
 .text.GetTxStallStatus
                0x00000000       0x1a C:\Users\moseichuk\AppData\Local\Temp\VMBuilds\TestSerial\Arduino_STM32_genericSTM32F103Z\Release\core.a(usb_regs.c.o)
 .text.GetRxStallStatus
                0x00000000       0x1a C:\Users\moseichuk\AppData\Local\Temp\VMBuilds\TestSerial\Arduino_STM32_genericSTM32F103Z\Release\core.a(usb_regs.c.o)
 .text.ClearEP_CTR_RX
                0x00000000       0x18 C:\Users\moseichuk\AppData\Local\Temp\VMBuilds\TestSerial\Arduino_STM32_genericSTM32F103Z\Release\core.a(usb_regs.c.o)
 .text.ClearEP_CTR_TX
                0x00000000       0x1c C:\Users\moseichuk\AppData\Local\Temp\VMBuilds\TestSerial\Arduino_STM32_genericSTM32F103Z\Release\core.a(usb_regs.c.o)
 .text.ToggleDTOG_RX
                0x00000000       0x20 C:\Users\moseichuk\AppData\Local\Temp\VMBuilds\TestSerial\Arduino_STM32_genericSTM32F103Z\Release\core.a(usb_regs.c.o)
 .text.ToggleDTOG_TX
                0x00000000       0x20 C:\Users\moseichuk\AppData\Local\Temp\VMBuilds\TestSerial\Arduino_STM32_genericSTM32F103Z\Release\core.a(usb_regs.c.o)
 .text.SetEPAddress
                0x00000000       0x1e C:\Users\moseichuk\AppData\Local\Temp\VMBuilds\TestSerial\Arduino_STM32_genericSTM32F103Z\Release\core.a(usb_regs.c.o)
 .text.GetEPAddress
                0x00000000       0x12 C:\Users\moseichuk\AppData\Local\Temp\VMBuilds\TestSerial\Arduino_STM32_genericSTM32F103Z\Release\core.a(usb_regs.c.o)
 .text.SetEPTxAddr
                0x00000000       0x20 C:\Users\moseichuk\AppData\Local\Temp\VMBuilds\TestSerial\Arduino_STM32_genericSTM32F103Z\Release\core.a(usb_regs.c.o)
 .text.SetEPRxAddr
                0x00000000       0x20 C:\Users\moseichuk\AppData\Local\Temp\VMBuilds\TestSerial\Arduino_STM32_genericSTM32F103Z\Release\core.a(usb_regs.c.o)
 .text.SetEPCountRxReg
                0x00000000       0x26 C:\Users\moseichuk\AppData\Local\Temp\VMBuilds\TestSerial\Arduino_STM32_genericSTM32F103Z\Release\core.a(usb_regs.c.o)
 .text.GetEPTxCount
                0x00000000       0x20 C:\Users\moseichuk\AppData\Local\Temp\VMBuilds\TestSerial\Arduino_STM32_genericSTM32F103Z\Release\core.a(usb_regs.c.o)
 .text.GetEPRxCount
                0x00000000       0x20 C:\Users\moseichuk\AppData\Local\Temp\VMBuilds\TestSerial\Arduino_STM32_genericSTM32F103Z\Release\core.a(usb_regs.c.o)
 .text.SetEPDblBuffAddr
                0x00000000       0x38 C:\Users\moseichuk\AppData\Local\Temp\VMBuilds\TestSerial\Arduino_STM32_genericSTM32F103Z\Release\core.a(usb_regs.c.o)
 .text.SetEPDblBuf0Addr
                0x00000000       0x20 C:\Users\moseichuk\AppData\Local\Temp\VMBuilds\TestSerial\Arduino_STM32_genericSTM32F103Z\Release\core.a(usb_regs.c.o)
 .text.SetEPDblBuf1Addr
                0x00000000       0x20 C:\Users\moseichuk\AppData\Local\Temp\VMBuilds\TestSerial\Arduino_STM32_genericSTM32F103Z\Release\core.a(usb_regs.c.o)
 .text.GetEPDblBuf0Addr
                0x00000000       0x1c C:\Users\moseichuk\AppData\Local\Temp\VMBuilds\TestSerial\Arduino_STM32_genericSTM32F103Z\Release\core.a(usb_regs.c.o)
 .text.GetEPDblBuf1Addr
                0x00000000       0x1c C:\Users\moseichuk\AppData\Local\Temp\VMBuilds\TestSerial\Arduino_STM32_genericSTM32F103Z\Release\core.a(usb_regs.c.o)
 .text.SetEPDblBuffCount
                0x00000000       0xa8 C:\Users\moseichuk\AppData\Local\Temp\VMBuilds\TestSerial\Arduino_STM32_genericSTM32F103Z\Release\core.a(usb_regs.c.o)
 .text.SetEPDblBuf0Count
                0x00000000       0x5c C:\Users\moseichuk\AppData\Local\Temp\VMBuilds\TestSerial\Arduino_STM32_genericSTM32F103Z\Release\core.a(usb_regs.c.o)
 .text.SetEPDblBuf1Count
                0x00000000       0x5c C:\Users\moseichuk\AppData\Local\Temp\VMBuilds\TestSerial\Arduino_STM32_genericSTM32F103Z\Release\core.a(usb_regs.c.o)
 .text.GetEPDblBuf0Count
                0x00000000       0x20 C:\Users\moseichuk\AppData\Local\Temp\VMBuilds\TestSerial\Arduino_STM32_genericSTM32F103Z\Release\core.a(usb_regs.c.o)
 .text.GetEPDblBuf1Count
                0x00000000       0x20 C:\Users\moseichuk\AppData\Local\Temp\VMBuilds\TestSerial\Arduino_STM32_genericSTM32F103Z\Release\core.a(usb_regs.c.o)
 .text.GetEPDblBufDir
                0x00000000       0x44 C:\Users\moseichuk\AppData\Local\Temp\VMBuilds\TestSerial\Arduino_STM32_genericSTM32F103Z\Release\core.a(usb_regs.c.o)
 .text.FreeUserBuffer
                0x00000000       0x3a C:\Users\moseichuk\AppData\Local\Temp\VMBuilds\TestSerial\Arduino_STM32_genericSTM32F103Z\Release\core.a(usb_regs.c.o)
 .text.ToWord   0x00000000        0x6 C:\Users\moseichuk\AppData\Local\Temp\VMBuilds\TestSerial\Arduino_STM32_genericSTM32F103Z\Release\core.a(usb_regs.c.o)
 .text.ByteSwap
                0x00000000        0xa C:\Users\moseichuk\AppData\Local\Temp\VMBuilds\TestSerial\Arduino_STM32_genericSTM32F103Z\Release\core.a(usb_regs.c.o)
 .group         0x00000000        0x8 C:\Users\moseichuk\AppData\Local\Temp\VMBuilds\TestSerial\Arduino_STM32_genericSTM32F103Z\Release\core.a(HardwareSerial.cpp.o)
 .text          0x00000000        0x0 C:\Users\moseichuk\AppData\Local\Temp\VMBuilds\TestSerial\Arduino_STM32_genericSTM32F103Z\Release\core.a(HardwareSerial.cpp.o)
 .data          0x00000000        0x0 C:\Users\moseichuk\AppData\Local\Temp\VMBuilds\TestSerial\Arduino_STM32_genericSTM32F103Z\Release\core.a(HardwareSerial.cpp.o)
 .bss           0x00000000        0x0 C:\Users\moseichuk\AppData\Local\Temp\VMBuilds\TestSerial\Arduino_STM32_genericSTM32F103Z\Release\core.a(HardwareSerial.cpp.o)
 .text._ZN14HardwareSerial5beginEmh
                0x00000000       0x78 C:\Users\moseichuk\AppData\Local\Temp\VMBuilds\TestSerial\Arduino_STM32_genericSTM32F103Z\Release\core.a(HardwareSerial.cpp.o)
 .text._ZN14HardwareSerial5beginEm
                0x00000000        0x6 C:\Users\moseichuk\AppData\Local\Temp\VMBuilds\TestSerial\Arduino_STM32_genericSTM32F103Z\Release\core.a(HardwareSerial.cpp.o)
 .text._ZN14HardwareSerial3endEv
                0x00000000        0x6 C:\Users\moseichuk\AppData\Local\Temp\VMBuilds\TestSerial\Arduino_STM32_genericSTM32F103Z\Release\core.a(HardwareSerial.cpp.o)
 .text._ZN14HardwareSerial17availableForWriteEv
                0x00000000        0x4 C:\Users\moseichuk\AppData\Local\Temp\VMBuilds\TestSerial\Arduino_STM32_genericSTM32F103Z\Release\core.a(HardwareSerial.cpp.o)
 .rodata._ZTV6Stream
                0x00000000       0x28 C:\Users\moseichuk\AppData\Local\Temp\VMBuilds\TestSerial\Arduino_STM32_genericSTM32F103Z\Release\core.a(HardwareSerial.cpp.o)
 .text          0x00000000        0x0 C:\Users\moseichuk\AppData\Local\Temp\VMBuilds\TestSerial\Arduino_STM32_genericSTM32F103Z\Release\core.a(main.cpp.o)
 .data          0x00000000        0x0 C:\Users\moseichuk\AppData\Local\Temp\VMBuilds\TestSerial\Arduino_STM32_genericSTM32F103Z\Release\core.a(main.cpp.o)
 .bss           0x00000000        0x0 C:\Users\moseichuk\AppData\Local\Temp\VMBuilds\TestSerial\Arduino_STM32_genericSTM32F103Z\Release\core.a(main.cpp.o)
 .text          0x00000000        0x0 C:\Users\moseichuk\AppData\Local\Temp\VMBuilds\TestSerial\Arduino_STM32_genericSTM32F103Z\Release\core.a(Print.cpp.o)
 .data          0x00000000        0x0 C:\Users\moseichuk\AppData\Local\Temp\VMBuilds\TestSerial\Arduino_STM32_genericSTM32F103Z\Release\core.a(Print.cpp.o)
 .bss           0x00000000        0x0 C:\Users\moseichuk\AppData\Local\Temp\VMBuilds\TestSerial\Arduino_STM32_genericSTM32F103Z\Release\core.a(Print.cpp.o)
 .text._ZN5Print5printERK6String
                0x00000000       0x10 C:\Users\moseichuk\AppData\Local\Temp\VMBuilds\TestSerial\Arduino_STM32_genericSTM32F103Z\Release\core.a(Print.cpp.o)
 .text._ZN5Print5printEPK19__FlashStringHelper
                0x00000000        0x4 C:\Users\moseichuk\AppData\Local\Temp\VMBuilds\TestSerial\Arduino_STM32_genericSTM32F103Z\Release\core.a(Print.cpp.o)
 .text._ZN5Print5printERK9Printable
                0x00000000       0x10 C:\Users\moseichuk\AppData\Local\Temp\VMBuilds\TestSerial\Arduino_STM32_genericSTM32F103Z\Release\core.a(Print.cpp.o)
 .text._ZN5Print7printlnERK6String
                0x00000000       0x14 C:\Users\moseichuk\AppData\Local\Temp\VMBuilds\TestSerial\Arduino_STM32_genericSTM32F103Z\Release\core.a(Print.cpp.o)
 .text._ZN5Print7printlnEc
                0x00000000       0x14 C:\Users\moseichuk\AppData\Local\Temp\VMBuilds\TestSerial\Arduino_STM32_genericSTM32F103Z\Release\core.a(Print.cpp.o)
 .text._ZN5Print7printlnEPK19__FlashStringHelper
                0x00000000       0x14 C:\Users\moseichuk\AppData\Local\Temp\VMBuilds\TestSerial\Arduino_STM32_genericSTM32F103Z\Release\core.a(Print.cpp.o)
 .text._ZN5Print7printlnERK9Printable
                0x00000000       0x14 C:\Users\moseichuk\AppData\Local\Temp\VMBuilds\TestSerial\Arduino_STM32_genericSTM32F103Z\Release\core.a(Print.cpp.o)
 .text._ZN5Print5printEli
                0x00000000       0x12 C:\Users\moseichuk\AppData\Local\Temp\VMBuilds\TestSerial\Arduino_STM32_genericSTM32F103Z\Release\core.a(Print.cpp.o)
 .text._ZN5Print7printlnEli
                0x00000000       0x1c C:\Users\moseichuk\AppData\Local\Temp\VMBuilds\TestSerial\Arduino_STM32_genericSTM32F103Z\Release\core.a(Print.cpp.o)
 .text._ZN5Print7printlnExi
                0x00000000       0x1a C:\Users\moseichuk\AppData\Local\Temp\VMBuilds\TestSerial\Arduino_STM32_genericSTM32F103Z\Release\core.a(Print.cpp.o)
 .text._ZN5Print5printEyi
                0x00000000        0xa C:\Users\moseichuk\AppData\Local\Temp\VMBuilds\TestSerial\Arduino_STM32_genericSTM32F103Z\Release\core.a(Print.cpp.o)
 .text._ZN5Print5printEhi
                0x00000000       0x14 C:\Users\moseichuk\AppData\Local\Temp\VMBuilds\TestSerial\Arduino_STM32_genericSTM32F103Z\Release\core.a(Print.cpp.o)
 .text._ZN5Print7printlnEhi
                0x00000000       0x14 C:\Users\moseichuk\AppData\Local\Temp\VMBuilds\TestSerial\Arduino_STM32_genericSTM32F103Z\Release\core.a(Print.cpp.o)
 .text._ZN5Print5printEji
                0x00000000       0x14 C:\Users\moseichuk\AppData\Local\Temp\VMBuilds\TestSerial\Arduino_STM32_genericSTM32F103Z\Release\core.a(Print.cpp.o)
 .text._ZN5Print7printlnEji
                0x00000000       0x14 C:\Users\moseichuk\AppData\Local\Temp\VMBuilds\TestSerial\Arduino_STM32_genericSTM32F103Z\Release\core.a(Print.cpp.o)
 .text._ZN5Print5printEmi
                0x00000000       0x14 C:\Users\moseichuk\AppData\Local\Temp\VMBuilds\TestSerial\Arduino_STM32_genericSTM32F103Z\Release\core.a(Print.cpp.o)
 .text._ZN5Print7printlnEmi
                0x00000000       0x1e C:\Users\moseichuk\AppData\Local\Temp\VMBuilds\TestSerial\Arduino_STM32_genericSTM32F103Z\Release\core.a(Print.cpp.o)
 .text._ZN5Print7printlnEyi
                0x00000000       0x1c C:\Users\moseichuk\AppData\Local\Temp\VMBuilds\TestSerial\Arduino_STM32_genericSTM32F103Z\Release\core.a(Print.cpp.o)
 .text._ZN5Print10printFloatEdh
                0x00000000      0x158 C:\Users\moseichuk\AppData\Local\Temp\VMBuilds\TestSerial\Arduino_STM32_genericSTM32F103Z\Release\core.a(Print.cpp.o)
 .text._ZN5Print5printEdi
                0x00000000        0xa C:\Users\moseichuk\AppData\Local\Temp\VMBuilds\TestSerial\Arduino_STM32_genericSTM32F103Z\Release\core.a(Print.cpp.o)
 .text._ZN5Print7printlnEdi
                0x00000000       0x1c C:\Users\moseichuk\AppData\Local\Temp\VMBuilds\TestSerial\Arduino_STM32_genericSTM32F103Z\Release\core.a(Print.cpp.o)
 .rodata._ZTV5Print
                0x00000000       0x18 C:\Users\moseichuk\AppData\Local\Temp\VMBuilds\TestSerial\Arduino_STM32_genericSTM32F103Z\Release\core.a(Print.cpp.o)
 .rodata.str1.1
                0x00000000       0x11 C:\Users\moseichuk\AppData\Local\Temp\VMBuilds\TestSerial\Arduino_STM32_genericSTM32F103Z\Release\core.a(Print.cpp.o)
 .group         0x00000000        0x8 C:\Users\moseichuk\AppData\Local\Temp\VMBuilds\TestSerial\Arduino_STM32_genericSTM32F103Z\Release\core.a(usb_serial.cpp.o)
 .text          0x00000000        0x0 C:\Users\moseichuk\AppData\Local\Temp\VMBuilds\TestSerial\Arduino_STM32_genericSTM32F103Z\Release\core.a(usb_serial.cpp.o)
 .data          0x00000000        0x0 C:\Users\moseichuk\AppData\Local\Temp\VMBuilds\TestSerial\Arduino_STM32_genericSTM32F103Z\Release\core.a(usb_serial.cpp.o)
 .bss           0x00000000        0x0 C:\Users\moseichuk\AppData\Local\Temp\VMBuilds\TestSerial\Arduino_STM32_genericSTM32F103Z\Release\core.a(usb_serial.cpp.o)
 .text._ZN9USBSerial5beginEmh
                0x00000000       0x18 C:\Users\moseichuk\AppData\Local\Temp\VMBuilds\TestSerial\Arduino_STM32_genericSTM32F103Z\Release\core.a(usb_serial.cpp.o)
 .text._ZN9USBSerial3endEv
                0x00000000       0x24 C:\Users\moseichuk\AppData\Local\Temp\VMBuilds\TestSerial\Arduino_STM32_genericSTM32F103Z\Release\core.a(usb_serial.cpp.o)
 .text._ZN9USBSerial9readBytesEPcRKj
                0x00000000       0x40 C:\Users\moseichuk\AppData\Local\Temp\VMBuilds\TestSerial\Arduino_STM32_genericSTM32F103Z\Release\core.a(usb_serial.cpp.o)
 .text._ZN9USBSerial7pendingEv
                0x00000000        0xa C:\Users\moseichuk\AppData\Local\Temp\VMBuilds\TestSerial\Arduino_STM32_genericSTM32F103Z\Release\core.a(usb_serial.cpp.o)
 .text._ZN9USBSerial6getDTREv
                0x00000000        0x4 C:\Users\moseichuk\AppData\Local\Temp\VMBuilds\TestSerial\Arduino_STM32_genericSTM32F103Z\Release\core.a(usb_serial.cpp.o)
 .text._ZN9USBSerial6getRTSEv
                0x00000000        0x4 C:\Users\moseichuk\AppData\Local\Temp\VMBuilds\TestSerial\Arduino_STM32_genericSTM32F103Z\Release\core.a(usb_serial.cpp.o)
 .rodata._ZTV6Stream
                0x00000000       0x28 C:\Users\moseichuk\AppData\Local\Temp\VMBuilds\TestSerial\Arduino_STM32_genericSTM32F103Z\Release\core.a(usb_serial.cpp.o)
 .text          0x00000000        0x0 C:\Users\moseichuk\AppData\Local\Temp\VMBuilds\TestSerial\Arduino_STM32_genericSTM32F103Z\Release\core.a(bkp_f1.c.o)
 .data          0x00000000        0x0 C:\Users\moseichuk\AppData\Local\Temp\VMBuilds\TestSerial\Arduino_STM32_genericSTM32F103Z\Release\core.a(bkp_f1.c.o)
 .bss           0x00000000        0x0 C:\Users\moseichuk\AppData\Local\Temp\VMBuilds\TestSerial\Arduino_STM32_genericSTM32F103Z\Release\core.a(bkp_f1.c.o)
 .text.bkp_read
                0x00000000        0xe C:\Users\moseichuk\AppData\Local\Temp\VMBuilds\TestSerial\Arduino_STM32_genericSTM32F103Z\Release\core.a(bkp_f1.c.o)
 .data.bkp      0x00000000        0x4 C:\Users\moseichuk\AppData\Local\Temp\VMBuilds\TestSerial\Arduino_STM32_genericSTM32F103Z\Release\core.a(bkp_f1.c.o)
 .data.BKP      0x00000000        0x4 C:\Users\moseichuk\AppData\Local\Temp\VMBuilds\TestSerial\Arduino_STM32_genericSTM32F103Z\Release\core.a(bkp_f1.c.o)
 .text          0x00000000        0x0 C:\Users\moseichuk\AppData\Local\Temp\VMBuilds\TestSerial\Arduino_STM32_genericSTM32F103Z\Release\core.a(dma.c.o)
 .data          0x00000000        0x0 C:\Users\moseichuk\AppData\Local\Temp\VMBuilds\TestSerial\Arduino_STM32_genericSTM32F103Z\Release\core.a(dma.c.o)
 .bss           0x00000000        0x0 C:\Users\moseichuk\AppData\Local\Temp\VMBuilds\TestSerial\Arduino_STM32_genericSTM32F103Z\Release\core.a(dma.c.o)
 .text.dma_init
                0x00000000        0x6 C:\Users\moseichuk\AppData\Local\Temp\VMBuilds\TestSerial\Arduino_STM32_genericSTM32F103Z\Release\core.a(dma.c.o)
 .text._dma_addr_type
                0x00000000       0x28 C:\Users\moseichuk\AppData\Local\Temp\VMBuilds\TestSerial\Arduino_STM32_genericSTM32F103Z\Release\core.a(dma.c.o)
 .text          0x00000000        0x0 C:\Users\moseichuk\AppData\Local\Temp\VMBuilds\TestSerial\Arduino_STM32_genericSTM32F103Z\Release\core.a(gpio.c.o)
 .data          0x00000000        0x0 C:\Users\moseichuk\AppData\Local\Temp\VMBuilds\TestSerial\Arduino_STM32_genericSTM32F103Z\Release\core.a(gpio.c.o)
 .bss           0x00000000        0x0 C:\Users\moseichuk\AppData\Local\Temp\VMBuilds\TestSerial\Arduino_STM32_genericSTM32F103Z\Release\core.a(gpio.c.o)
 .text          0x00000000        0x0 C:\Users\moseichuk\AppData\Local\Temp\VMBuilds\TestSerial\Arduino_STM32_genericSTM32F103Z\Release\core.a(i2c.c.o)
 .data          0x00000000        0x0 C:\Users\moseichuk\AppData\Local\Temp\VMBuilds\TestSerial\Arduino_STM32_genericSTM32F103Z\Release\core.a(i2c.c.o)
 .bss           0x00000000        0x0 C:\Users\moseichuk\AppData\Local\Temp\VMBuilds\TestSerial\Arduino_STM32_genericSTM32F103Z\Release\core.a(i2c.c.o)
 .text.delay_us.constprop.4
                0x00000000        0xa C:\Users\moseichuk\AppData\Local\Temp\VMBuilds\TestSerial\Arduino_STM32_genericSTM32F103Z\Release\core.a(i2c.c.o)
 .text.i2c_bus_reset
                0x00000000       0xb2 C:\Users\moseichuk\AppData\Local\Temp\VMBuilds\TestSerial\Arduino_STM32_genericSTM32F103Z\Release\core.a(i2c.c.o)
 .text.i2c_init
                0x00000000       0x18 C:\Users\moseichuk\AppData\Local\Temp\VMBuilds\TestSerial\Arduino_STM32_genericSTM32F103Z\Release\core.a(i2c.c.o)
 .text.i2c_master_enable
                0x00000000       0xd8 C:\Users\moseichuk\AppData\Local\Temp\VMBuilds\TestSerial\Arduino_STM32_genericSTM32F103Z\Release\core.a(i2c.c.o)
 .text.i2c_master_xfer
                0x00000000       0x5c C:\Users\moseichuk\AppData\Local\Temp\VMBuilds\TestSerial\Arduino_STM32_genericSTM32F103Z\Release\core.a(i2c.c.o)
 .text          0x00000000        0x0 C:\Users\moseichuk\AppData\Local\Temp\VMBuilds\TestSerial\Arduino_STM32_genericSTM32F103Z\Release\core.a(usart.c.o)
 .data          0x00000000        0x0 C:\Users\moseichuk\AppData\Local\Temp\VMBuilds\TestSerial\Arduino_STM32_genericSTM32F103Z\Release\core.a(usart.c.o)
 .bss           0x00000000        0x0 C:\Users\moseichuk\AppData\Local\Temp\VMBuilds\TestSerial\Arduino_STM32_genericSTM32F103Z\Release\core.a(usart.c.o)
 .text.usart_init
                0x00000000       0x4c C:\Users\moseichuk\AppData\Local\Temp\VMBuilds\TestSerial\Arduino_STM32_genericSTM32F103Z\Release\core.a(usart.c.o)
 .text.usart_enable
                0x00000000       0x14 C:\Users\moseichuk\AppData\Local\Temp\VMBuilds\TestSerial\Arduino_STM32_genericSTM32F103Z\Release\core.a(usart.c.o)
 .text.usart_disable
                0x00000000       0x38 C:\Users\moseichuk\AppData\Local\Temp\VMBuilds\TestSerial\Arduino_STM32_genericSTM32F103Z\Release\core.a(usart.c.o)
 .text.usart_rx
                0x00000000       0x58 C:\Users\moseichuk\AppData\Local\Temp\VMBuilds\TestSerial\Arduino_STM32_genericSTM32F103Z\Release\core.a(usart.c.o)
 .text.usart_putudec
                0x00000000       0x44 C:\Users\moseichuk\AppData\Local\Temp\VMBuilds\TestSerial\Arduino_STM32_genericSTM32F103Z\Release\core.a(usart.c.o)
 .text          0x00000000        0x0 C:\Users\moseichuk\AppData\Local\Temp\VMBuilds\TestSerial\Arduino_STM32_genericSTM32F103Z\Release\core.a(cxxabi-compat.cpp.o)
 .data          0x00000000        0x0 C:\Users\moseichuk\AppData\Local\Temp\VMBuilds\TestSerial\Arduino_STM32_genericSTM32F103Z\Release\core.a(cxxabi-compat.cpp.o)
 .bss           0x00000000        0x0 C:\Users\moseichuk\AppData\Local\Temp\VMBuilds\TestSerial\Arduino_STM32_genericSTM32F103Z\Release\core.a(cxxabi-compat.cpp.o)
 .text.__cxa_pure_virtual
                0x00000000        0x2 C:\Users\moseichuk\AppData\Local\Temp\VMBuilds\TestSerial\Arduino_STM32_genericSTM32F103Z\Release\core.a(cxxabi-compat.cpp.o)
 .text          0x00000000      0x370 c:/users/moseichuk/appdata/local/arduino15/packages/arduino/tools/arm-none-eabi-gcc/4.8.3-2014q1/bin/../lib/gcc/arm-none-eabi/4.8.3/armv7-m\libgcc.a(_arm_addsubdf3.o)
 .data          0x00000000        0x0 c:/users/moseichuk/appdata/local/arduino15/packages/arduino/tools/arm-none-eabi-gcc/4.8.3-2014q1/bin/../lib/gcc/arm-none-eabi/4.8.3/armv7-m\libgcc.a(_arm_addsubdf3.o)
 .bss           0x00000000        0x0 c:/users/moseichuk/appdata/local/arduino15/packages/arduino/tools/arm-none-eabi-gcc/4.8.3-2014q1/bin/../lib/gcc/arm-none-eabi/4.8.3/armv7-m\libgcc.a(_arm_addsubdf3.o)
 .text          0x00000000      0x424 c:/users/moseichuk/appdata/local/arduino15/packages/arduino/tools/arm-none-eabi-gcc/4.8.3-2014q1/bin/../lib/gcc/arm-none-eabi/4.8.3/armv7-m\libgcc.a(_arm_muldivdf3.o)
 .data          0x00000000        0x0 c:/users/moseichuk/appdata/local/arduino15/packages/arduino/tools/arm-none-eabi-gcc/4.8.3-2014q1/bin/../lib/gcc/arm-none-eabi/4.8.3/armv7-m\libgcc.a(_arm_muldivdf3.o)
 .bss           0x00000000        0x0 c:/users/moseichuk/appdata/local/arduino15/packages/arduino/tools/arm-none-eabi-gcc/4.8.3-2014q1/bin/../lib/gcc/arm-none-eabi/4.8.3/armv7-m\libgcc.a(_arm_muldivdf3.o)
 .text          0x00000000      0x110 c:/users/moseichuk/appdata/local/arduino15/packages/arduino/tools/arm-none-eabi-gcc/4.8.3-2014q1/bin/../lib/gcc/arm-none-eabi/4.8.3/armv7-m\libgcc.a(_arm_cmpdf2.o)
 .data          0x00000000        0x0 c:/users/moseichuk/appdata/local/arduino15/packages/arduino/tools/arm-none-eabi-gcc/4.8.3-2014q1/bin/../lib/gcc/arm-none-eabi/4.8.3/armv7-m\libgcc.a(_arm_cmpdf2.o)
 .bss           0x00000000        0x0 c:/users/moseichuk/appdata/local/arduino15/packages/arduino/tools/arm-none-eabi-gcc/4.8.3-2014q1/bin/../lib/gcc/arm-none-eabi/4.8.3/armv7-m\libgcc.a(_arm_cmpdf2.o)
 .text          0x00000000       0x50 c:/users/moseichuk/appdata/local/arduino15/packages/arduino/tools/arm-none-eabi-gcc/4.8.3-2014q1/bin/../lib/gcc/arm-none-eabi/4.8.3/armv7-m\libgcc.a(_arm_fixdfsi.o)
 .data          0x00000000        0x0 c:/users/moseichuk/appdata/local/arduino15/packages/arduino/tools/arm-none-eabi-gcc/4.8.3-2014q1/bin/../lib/gcc/arm-none-eabi/4.8.3/armv7-m\libgcc.a(_arm_fixdfsi.o)
 .bss           0x00000000        0x0 c:/users/moseichuk/appdata/local/arduino15/packages/arduino/tools/arm-none-eabi-gcc/4.8.3-2014q1/bin/../lib/gcc/arm-none-eabi/4.8.3/armv7-m\libgcc.a(_arm_fixdfsi.o)
 .data          0x00000000        0x0 c:/users/moseichuk/appdata/local/arduino15/packages/arduino/tools/arm-none-eabi-gcc/4.8.3-2014q1/bin/../lib/gcc/arm-none-eabi/4.8.3/armv7-m\libgcc.a(_aeabi_uldivmod.o)
 .bss           0x00000000        0x0 c:/users/moseichuk/appdata/local/arduino15/packages/arduino/tools/arm-none-eabi-gcc/4.8.3-2014q1/bin/../lib/gcc/arm-none-eabi/4.8.3/armv7-m\libgcc.a(_aeabi_uldivmod.o)
 .text          0x00000000       0x30 c:/users/moseichuk/appdata/local/arduino15/packages/arduino/tools/arm-none-eabi-gcc/4.8.3-2014q1/bin/../lib/gcc/arm-none-eabi/4.8.3/armv7-m\libgcc.a(_fixdfdi.o)
 .data          0x00000000        0x0 c:/users/moseichuk/appdata/local/arduino15/packages/arduino/tools/arm-none-eabi-gcc/4.8.3-2014q1/bin/../lib/gcc/arm-none-eabi/4.8.3/armv7-m\libgcc.a(_fixdfdi.o)
 .bss           0x00000000        0x0 c:/users/moseichuk/appdata/local/arduino15/packages/arduino/tools/arm-none-eabi-gcc/4.8.3-2014q1/bin/../lib/gcc/arm-none-eabi/4.8.3/armv7-m\libgcc.a(_fixdfdi.o)
 .text          0x00000000       0x44 c:/users/moseichuk/appdata/local/arduino15/packages/arduino/tools/arm-none-eabi-gcc/4.8.3-2014q1/bin/../lib/gcc/arm-none-eabi/4.8.3/armv7-m\libgcc.a(_fixunsdfdi.o)
 .data          0x00000000        0x0 c:/users/moseichuk/appdata/local/arduino15/packages/arduino/tools/arm-none-eabi-gcc/4.8.3-2014q1/bin/../lib/gcc/arm-none-eabi/4.8.3/armv7-m\libgcc.a(_fixunsdfdi.o)
 .bss           0x00000000        0x0 c:/users/moseichuk/appdata/local/arduino15/packages/arduino/tools/arm-none-eabi-gcc/4.8.3-2014q1/bin/../lib/gcc/arm-none-eabi/4.8.3/armv7-m\libgcc.a(_fixunsdfdi.o)
 .data          0x00000000        0x0 c:/users/moseichuk/appdata/local/arduino15/packages/arduino/tools/arm-none-eabi-gcc/4.8.3-2014q1/bin/../lib/gcc/arm-none-eabi/4.8.3/armv7-m\libgcc.a(bpabi.o)
 .bss           0x00000000        0x0 c:/users/moseichuk/appdata/local/arduino15/packages/arduino/tools/arm-none-eabi-gcc/4.8.3-2014q1/bin/../lib/gcc/arm-none-eabi/4.8.3/armv7-m\libgcc.a(bpabi.o)
 .data          0x00000000        0x0 c:/users/moseichuk/appdata/local/arduino15/packages/arduino/tools/arm-none-eabi-gcc/4.8.3-2014q1/bin/../lib/gcc/arm-none-eabi/4.8.3/armv7-m\libgcc.a(_dvmd_tls.o)
 .bss           0x00000000        0x0 c:/users/moseichuk/appdata/local/arduino15/packages/arduino/tools/arm-none-eabi-gcc/4.8.3-2014q1/bin/../lib/gcc/arm-none-eabi/4.8.3/armv7-m\libgcc.a(_dvmd_tls.o)
 .text          0x00000000       0x40 c:/users/moseichuk/appdata/local/arduino15/packages/arduino/tools/arm-none-eabi-gcc/4.8.3-2014q1/bin/../lib/gcc/arm-none-eabi/4.8.3/armv7-m\libgcc.a(_arm_fixunsdfsi.o)
 .data          0x00000000        0x0 c:/users/moseichuk/appdata/local/arduino15/packages/arduino/tools/arm-none-eabi-gcc/4.8.3-2014q1/bin/../lib/gcc/arm-none-eabi/4.8.3/armv7-m\libgcc.a(_arm_fixunsdfsi.o)
 .bss           0x00000000        0x0 c:/users/moseichuk/appdata/local/arduino15/packages/arduino/tools/arm-none-eabi-gcc/4.8.3-2014q1/bin/../lib/gcc/arm-none-eabi/4.8.3/armv7-m\libgcc.a(_arm_fixunsdfsi.o)
 .data          0x00000000        0x0 c:/users/moseichuk/appdata/local/arduino15/packages/arduino/tools/arm-none-eabi-gcc/4.8.3-2014q1/bin/../lib/gcc/arm-none-eabi/4.8.3/armv7-m\libgcc.a(_divdi3.o)
 .bss           0x00000000        0x0 c:/users/moseichuk/appdata/local/arduino15/packages/arduino/tools/arm-none-eabi-gcc/4.8.3-2014q1/bin/../lib/gcc/arm-none-eabi/4.8.3/armv7-m\libgcc.a(_divdi3.o)
 .ARM.extab     0x00000000        0x0 c:/users/moseichuk/appdata/local/arduino15/packages/arduino/tools/arm-none-eabi-gcc/4.8.3-2014q1/bin/../lib/gcc/arm-none-eabi/4.8.3/armv7-m\libgcc.a(_divdi3.o)
 .data          0x00000000        0x0 c:/users/moseichuk/appdata/local/arduino15/packages/arduino/tools/arm-none-eabi-gcc/4.8.3-2014q1/bin/../lib/gcc/arm-none-eabi/4.8.3/armv7-m\libgcc.a(_udivdi3.o)
 .bss           0x00000000        0x0 c:/users/moseichuk/appdata/local/arduino15/packages/arduino/tools/arm-none-eabi-gcc/4.8.3-2014q1/bin/../lib/gcc/arm-none-eabi/4.8.3/armv7-m\libgcc.a(_udivdi3.o)
 .ARM.extab     0x00000000        0x0 c:/users/moseichuk/appdata/local/arduino15/packages/arduino/tools/arm-none-eabi-gcc/4.8.3-2014q1/bin/../lib/gcc/arm-none-eabi/4.8.3/armv7-m\libgcc.a(_udivdi3.o)
 .text          0x00000000        0x0 c:/users/moseichuk/appdata/local/arduino15/packages/arduino/tools/arm-none-eabi-gcc/4.8.3-2014q1/bin/../lib/gcc/arm-none-eabi/4.8.3/../../../../arm-none-eabi/lib/armv7-m\libc.a(lib_a-errno.o)
 .data          0x00000000        0x0 c:/users/moseichuk/appdata/local/arduino15/packages/arduino/tools/arm-none-eabi-gcc/4.8.3-2014q1/bin/../lib/gcc/arm-none-eabi/4.8.3/../../../../arm-none-eabi/lib/armv7-m\libc.a(lib_a-errno.o)
 .bss           0x00000000        0x0 c:/users/moseichuk/appdata/local/arduino15/packages/arduino/tools/arm-none-eabi-gcc/4.8.3-2014q1/bin/../lib/gcc/arm-none-eabi/4.8.3/../../../../arm-none-eabi/lib/armv7-m\libc.a(lib_a-errno.o)
 .text.__errno  0x00000000        0xc c:/users/moseichuk/appdata/local/arduino15/packages/arduino/tools/arm-none-eabi-gcc/4.8.3-2014q1/bin/../lib/gcc/arm-none-eabi/4.8.3/../../../../arm-none-eabi/lib/armv7-m\libc.a(lib_a-errno.o)
 .text          0x00000000        0x0 c:/users/moseichuk/appdata/local/arduino15/packages/arduino/tools/arm-none-eabi-gcc/4.8.3-2014q1/bin/../lib/gcc/arm-none-eabi/4.8.3/../../../../arm-none-eabi/lib/armv7-m\libc.a(lib_a-exit.o)
 .data          0x00000000        0x0 c:/users/moseichuk/appdata/local/arduino15/packages/arduino/tools/arm-none-eabi-gcc/4.8.3-2014q1/bin/../lib/gcc/arm-none-eabi/4.8.3/../../../../arm-none-eabi/lib/armv7-m\libc.a(lib_a-exit.o)
 .bss           0x00000000        0x0 c:/users/moseichuk/appdata/local/arduino15/packages/arduino/tools/arm-none-eabi-gcc/4.8.3-2014q1/bin/../lib/gcc/arm-none-eabi/4.8.3/../../../../arm-none-eabi/lib/armv7-m\libc.a(lib_a-exit.o)
 .text          0x00000000        0x0 c:/users/moseichuk/appdata/local/arduino15/packages/arduino/tools/arm-none-eabi-gcc/4.8.3-2014q1/bin/../lib/gcc/arm-none-eabi/4.8.3/../../../../arm-none-eabi/lib/armv7-m\libc.a(lib_a-impure.o)
 .data          0x00000000        0x0 c:/users/moseichuk/appdata/local/arduino15/packages/arduino/tools/arm-none-eabi-gcc/4.8.3-2014q1/bin/../lib/gcc/arm-none-eabi/4.8.3/../../../../arm-none-eabi/lib/armv7-m\libc.a(lib_a-impure.o)
 .bss           0x00000000        0x0 c:/users/moseichuk/appdata/local/arduino15/packages/arduino/tools/arm-none-eabi-gcc/4.8.3-2014q1/bin/../lib/gcc/arm-none-eabi/4.8.3/../../../../arm-none-eabi/lib/armv7-m\libc.a(lib_a-impure.o)
 .data._impure_ptr
                0x00000000        0x4 c:/users/moseichuk/appdata/local/arduino15/packages/arduino/tools/arm-none-eabi-gcc/4.8.3-2014q1/bin/../lib/gcc/arm-none-eabi/4.8.3/../../../../arm-none-eabi/lib/armv7-m\libc.a(lib_a-impure.o)
 .text          0x00000000        0x0 c:/users/moseichuk/appdata/local/arduino15/packages/arduino/tools/arm-none-eabi-gcc/4.8.3-2014q1/bin/../lib/gcc/arm-none-eabi/4.8.3/../../../../arm-none-eabi/lib/armv7-m\libc.a(lib_a-init.o)
 .data          0x00000000        0x0 c:/users/moseichuk/appdata/local/arduino15/packages/arduino/tools/arm-none-eabi-gcc/4.8.3-2014q1/bin/../lib/gcc/arm-none-eabi/4.8.3/../../../../arm-none-eabi/lib/armv7-m\libc.a(lib_a-init.o)
 .bss           0x00000000        0x0 c:/users/moseichuk/appdata/local/arduino15/packages/arduino/tools/arm-none-eabi-gcc/4.8.3-2014q1/bin/../lib/gcc/arm-none-eabi/4.8.3/../../../../arm-none-eabi/lib/armv7-m\libc.a(lib_a-init.o)
 .text          0x00000000        0x0 c:/users/moseichuk/appdata/local/arduino15/packages/arduino/tools/arm-none-eabi-gcc/4.8.3-2014q1/bin/../lib/gcc/arm-none-eabi/4.8.3/../../../../arm-none-eabi/lib/armv7-m\libc.a(lib_a-memset.o)
 .data          0x00000000        0x0 c:/users/moseichuk/appdata/local/arduino15/packages/arduino/tools/arm-none-eabi-gcc/4.8.3-2014q1/bin/../lib/gcc/arm-none-eabi/4.8.3/../../../../arm-none-eabi/lib/armv7-m\libc.a(lib_a-memset.o)
 .bss           0x00000000        0x0 c:/users/moseichuk/appdata/local/arduino15/packages/arduino/tools/arm-none-eabi-gcc/4.8.3-2014q1/bin/../lib/gcc/arm-none-eabi/4.8.3/../../../../arm-none-eabi/lib/armv7-m\libc.a(lib_a-memset.o)
 .text.memset   0x00000000       0x94 c:/users/moseichuk/appdata/local/arduino15/packages/arduino/tools/arm-none-eabi-gcc/4.8.3-2014q1/bin/../lib/gcc/arm-none-eabi/4.8.3/../../../../arm-none-eabi/lib/armv7-m\libc.a(lib_a-memset.o)
 .text          0x00000000        0x0 c:/users/moseichuk/appdata/local/arduino15/packages/arduino/tools/arm-none-eabi-gcc/4.8.3-2014q1/bin/../lib/gcc/arm-none-eabi/4.8.3/../../../../arm-none-eabi/lib/armv7-m\libc.a(lib_a-strlen.o)
 .data          0x00000000        0x0 c:/users/moseichuk/appdata/local/arduino15/packages/arduino/tools/arm-none-eabi-gcc/4.8.3-2014q1/bin/../lib/gcc/arm-none-eabi/4.8.3/../../../../arm-none-eabi/lib/armv7-m\libc.a(lib_a-strlen.o)
 .bss           0x00000000        0x0 c:/users/moseichuk/appdata/local/arduino15/packages/arduino/tools/arm-none-eabi-gcc/4.8.3-2014q1/bin/../lib/gcc/arm-none-eabi/4.8.3/../../../../arm-none-eabi/lib/armv7-m\libc.a(lib_a-strlen.o)
 .text          0x00000000        0x0 c:/users/moseichuk/appdata/local/arduino15/packages/arduino/tools/arm-none-eabi-gcc/4.8.3-2014q1/bin/../lib/gcc/arm-none-eabi/4.8.3/../../../../arm-none-eabi/lib/armv7-m\libc.a(lib_a-__call_atexit.o)
 .data          0x00000000        0x0 c:/users/moseichuk/appdata/local/arduino15/packages/arduino/tools/arm-none-eabi-gcc/4.8.3-2014q1/bin/../lib/gcc/arm-none-eabi/4.8.3/../../../../arm-none-eabi/lib/armv7-m\libc.a(lib_a-__call_atexit.o)
 .bss           0x00000000        0x0 c:/users/moseichuk/appdata/local/arduino15/packages/arduino/tools/arm-none-eabi-gcc/4.8.3-2014q1/bin/../lib/gcc/arm-none-eabi/4.8.3/../../../../arm-none-eabi/lib/armv7-m\libc.a(lib_a-__call_atexit.o)
 .text          0x00000000        0x0 c:/users/moseichuk/appdata/local/arduino15/packages/arduino/tools/arm-none-eabi-gcc/4.8.3-2014q1/bin/../lib/gcc/arm-none-eabi/4.8.3/../../../../arm-none-eabi/lib/armv7-m\libc.a(lib_a-atexit.o)
 .data          0x00000000        0x0 c:/users/moseichuk/appdata/local/arduino15/packages/arduino/tools/arm-none-eabi-gcc/4.8.3-2014q1/bin/../lib/gcc/arm-none-eabi/4.8.3/../../../../arm-none-eabi/lib/armv7-m\libc.a(lib_a-atexit.o)
 .bss           0x00000000        0x0 c:/users/moseichuk/appdata/local/arduino15/packages/arduino/tools/arm-none-eabi-gcc/4.8.3-2014q1/bin/../lib/gcc/arm-none-eabi/4.8.3/../../../../arm-none-eabi/lib/armv7-m\libc.a(lib_a-atexit.o)
 .text          0x00000000        0x0 c:/users/moseichuk/appdata/local/arduino15/packages/arduino/tools/arm-none-eabi-gcc/4.8.3-2014q1/bin/../lib/gcc/arm-none-eabi/4.8.3/../../../../arm-none-eabi/lib/armv7-m\libc.a(lib_a-fini.o)
 .data          0x00000000        0x0 c:/users/moseichuk/appdata/local/arduino15/packages/arduino/tools/arm-none-eabi-gcc/4.8.3-2014q1/bin/../lib/gcc/arm-none-eabi/4.8.3/../../../../arm-none-eabi/lib/armv7-m\libc.a(lib_a-fini.o)
 .bss           0x00000000        0x0 c:/users/moseichuk/appdata/local/arduino15/packages/arduino/tools/arm-none-eabi-gcc/4.8.3-2014q1/bin/../lib/gcc/arm-none-eabi/4.8.3/../../../../arm-none-eabi/lib/armv7-m\libc.a(lib_a-fini.o)
 .text          0x00000000        0x0 c:/users/moseichuk/appdata/local/arduino15/packages/arduino/tools/arm-none-eabi-gcc/4.8.3-2014q1/bin/../lib/gcc/arm-none-eabi/4.8.3/../../../../arm-none-eabi/lib/armv7-m\libc.a(lib_a-__atexit.o)
 .data          0x00000000        0x0 c:/users/moseichuk/appdata/local/arduino15/packages/arduino/tools/arm-none-eabi-gcc/4.8.3-2014q1/bin/../lib/gcc/arm-none-eabi/4.8.3/../../../../arm-none-eabi/lib/armv7-m\libc.a(lib_a-__atexit.o)
 .bss           0x00000000        0x0 c:/users/moseichuk/appdata/local/arduino15/packages/arduino/tools/arm-none-eabi-gcc/4.8.3-2014q1/bin/../lib/gcc/arm-none-eabi/4.8.3/../../../../arm-none-eabi/lib/armv7-m\libc.a(lib_a-__atexit.o)
 .text          0x00000000        0x0 c:/users/moseichuk/appdata/local/arduino15/packages/arduino/tools/arm-none-eabi-gcc/4.8.3-2014q1/bin/../lib/gcc/arm-none-eabi/4.8.3/armv7-m/crtend.o
 .data          0x00000000        0x0 c:/users/moseichuk/appdata/local/arduino15/packages/arduino/tools/arm-none-eabi-gcc/4.8.3-2014q1/bin/../lib/gcc/arm-none-eabi/4.8.3/armv7-m/crtend.o
 .bss           0x00000000        0x0 c:/users/moseichuk/appdata/local/arduino15/packages/arduino/tools/arm-none-eabi-gcc/4.8.3-2014q1/bin/../lib/gcc/arm-none-eabi/4.8.3/armv7-m/crtend.o
 .eh_frame      0x00000000        0x4 c:/users/moseichuk/appdata/local/arduino15/packages/arduino/tools/arm-none-eabi-gcc/4.8.3-2014q1/bin/../lib/gcc/arm-none-eabi/4.8.3/armv7-m/crtend.o
 .jcr           0x00000000        0x4 c:/users/moseichuk/appdata/local/arduino15/packages/arduino/tools/arm-none-eabi-gcc/4.8.3-2014q1/bin/../lib/gcc/arm-none-eabi/4.8.3/armv7-m/crtend.o
 .text          0x00000000        0x0 c:/users/moseichuk/appdata/local/arduino15/packages/arduino/tools/arm-none-eabi-gcc/4.8.3-2014q1/bin/../lib/gcc/arm-none-eabi/4.8.3/armv7-m/crtn.o
 .data          0x00000000        0x0 c:/users/moseichuk/appdata/local/arduino15/packages/arduino/tools/arm-none-eabi-gcc/4.8.3-2014q1/bin/../lib/gcc/arm-none-eabi/4.8.3/armv7-m/crtn.o
 .bss           0x00000000        0x0 c:/users/moseichuk/appdata/local/arduino15/packages/arduino/tools/arm-none-eabi-gcc/4.8.3-2014q1/bin/../lib/gcc/arm-none-eabi/4.8.3/armv7-m/crtn.o

Memory Configuration

Name             Origin             Length             Attributes
ram              0x20000000         0x00010000         xrw
rom              0x08002000         0x0007e000         xr
*default*        0x00000000         0xffffffff

Linker script and memory map

LOAD c:/users/moseichuk/appdata/local/arduino15/packages/arduino/tools/arm-none-eabi-gcc/4.8.3-2014q1/bin/../lib/gcc/arm-none-eabi/4.8.3/armv7-m/crti.o
LOAD c:/users/moseichuk/appdata/local/arduino15/packages/arduino/tools/arm-none-eabi-gcc/4.8.3-2014q1/bin/../lib/gcc/arm-none-eabi/4.8.3/armv7-m/crtbegin.o
LOAD c:/users/moseichuk/appdata/local/arduino15/packages/arduino/tools/arm-none-eabi-gcc/4.8.3-2014q1/bin/../lib/gcc/arm-none-eabi/4.8.3/../../../../arm-none-eabi/lib/armv7-m/crt0.o
LOAD c:/users/moseichuk/appdata/local/arduino15/packages/arduino/tools/arm-none-eabi-gcc/4.8.3-2014q1/bin/../lib/gcc/arm-none-eabi/4.8.3/armv7-m\libgcc.a
START GROUP
LOAD C:\Users\moseichuk\AppData\Local\Temp\VMBuilds\TestSerial\Arduino_STM32_genericSTM32F103Z\Release\TestSerial.cpp.o
LOAD C:\Users\moseichuk\AppData\Local\Temp\VMBuilds\TestSerial\Arduino_STM32_genericSTM32F103Z\Release\variant\board.cpp.o
LOAD C:\Users\moseichuk\AppData\Local\Temp\VMBuilds\TestSerial\Arduino_STM32_genericSTM32F103Z\Release\variant\boards.cpp.o
LOAD C:\Users\moseichuk\AppData\Local\Temp\VMBuilds\TestSerial\Arduino_STM32_genericSTM32F103Z\Release\variant\boards_setup.cpp.o
LOAD C:\Users\moseichuk\AppData\Local\Temp\VMBuilds\TestSerial\Arduino_STM32_genericSTM32F103Z\Release\variant\start.S.o
LOAD C:\Users\moseichuk\AppData\Local\Temp\VMBuilds\TestSerial\Arduino_STM32_genericSTM32F103Z\Release\variant\start_c.c.o
LOAD C:\Users\moseichuk\AppData\Local\Temp\VMBuilds\TestSerial\Arduino_STM32_genericSTM32F103Z\Release\variant\syscalls.c.o
LOAD C:\Users\moseichuk\AppData\Local\Temp\VMBuilds\TestSerial\Arduino_STM32_genericSTM32F103Z\Release\core.a
END GROUP
LOAD c:/users/moseichuk/appdata/local/arduino15/packages/arduino/tools/arm-none-eabi-gcc/4.8.3-2014q1/bin/../lib/gcc/arm-none-eabi/4.8.3/../../../../arm-none-eabi/lib/armv7-m\libstdc++.a
LOAD c:/users/moseichuk/appdata/local/arduino15/packages/arduino/tools/arm-none-eabi-gcc/4.8.3-2014q1/bin/../lib/gcc/arm-none-eabi/4.8.3/../../../../arm-none-eabi/lib/armv7-m\libm.a
START GROUP
LOAD c:/users/moseichuk/appdata/local/arduino15/packages/arduino/tools/arm-none-eabi-gcc/4.8.3-2014q1/bin/../lib/gcc/arm-none-eabi/4.8.3/armv7-m\libgcc.a
LOAD c:/users/moseichuk/appdata/local/arduino15/packages/arduino/tools/arm-none-eabi-gcc/4.8.3-2014q1/bin/../lib/gcc/arm-none-eabi/4.8.3/../../../../arm-none-eabi/lib/armv7-m\libc.a
END GROUP
LOAD c:/users/moseichuk/appdata/local/arduino15/packages/arduino/tools/arm-none-eabi-gcc/4.8.3-2014q1/bin/../lib/gcc/arm-none-eabi/4.8.3/armv7-m/crtend.o
LOAD c:/users/moseichuk/appdata/local/arduino15/packages/arduino/tools/arm-none-eabi-gcc/4.8.3-2014q1/bin/../lib/gcc/arm-none-eabi/4.8.3/armv7-m/crtn.o
START GROUP
LOAD c:/users/moseichuk/appdata/local/arduino15/packages/arduino/tools/arm-none-eabi-gcc/4.8.3-2014q1/bin/../lib/gcc/arm-none-eabi/4.8.3/armv7-m\libgcc.a
LOAD c:/users/moseichuk/appdata/local/arduino15/packages/arduino/tools/arm-none-eabi-gcc/4.8.3-2014q1/bin/../lib/gcc/arm-none-eabi/4.8.3/../../../../arm-none-eabi/lib/armv7-m\libc.a
LOAD c:/users/moseichuk/appdata/local/arduino15/packages/arduino/tools/arm-none-eabi-gcc/4.8.3-2014q1/bin/../lib/gcc/arm-none-eabi/4.8.3/../../../../arm-none-eabi/lib/armv7-m\libm.a
END GROUP
START GROUP
LOAD c:/users/moseichuk/appdata/local/arduino15/packages/arduino/tools/arm-none-eabi-gcc/4.8.3-2014q1/bin/../lib/gcc/arm-none-eabi/4.8.3/../../../../arm-none-eabi/lib/armv7-m\libnosys.a
END GROUP
                0x20010000                PROVIDE (__msp_init, (ORIGIN (ram) + 0x10000))
                0x080024a0                PROVIDE (__exc_reset, __start__)

.text           0x08002000     0x3544
                0x08002000                __text_start__ = .
 *(.stm32.interrupt_vector)
 .stm32.interrupt_vector
                0x08002000      0x130 C:\Users\moseichuk\AppData\Local\Temp\VMBuilds\TestSerial\Arduino_STM32_genericSTM32F103Z\Release\core.a(vector_table.S.o)
                0x08002000                __stm32_vector_table
 *(.text .text.* .gnu.linkonce.t.*)
 .text          0x08002130       0x54 c:/users/moseichuk/appdata/local/arduino15/packages/arduino/tools/arm-none-eabi-gcc/4.8.3-2014q1/bin/../lib/gcc/arm-none-eabi/4.8.3/armv7-m/crtbegin.o
 .text._Z5setupv
                0x08002184       0x2c C:\Users\moseichuk\AppData\Local\Temp\VMBuilds\TestSerial\Arduino_STM32_genericSTM32F103Z\Release\TestSerial.cpp.o
                0x08002184                setup()
 .text._Z4loopv
                0x080021b0       0x78 C:\Users\moseichuk\AppData\Local\Temp\VMBuilds\TestSerial\Arduino_STM32_genericSTM32F103Z\Release\TestSerial.cpp.o
                0x080021b0                loop()
 .text.startup._GLOBAL__sub_I_PIN_MAP
                0x08002228       0x74 C:\Users\moseichuk\AppData\Local\Temp\VMBuilds\TestSerial\Arduino_STM32_genericSTM32F103Z\Release\variant\board.cpp.o
 .text._ZL18adc_default_configP7adc_dev
                0x0800229c       0x1c C:\Users\moseichuk\AppData\Local\Temp\VMBuilds\TestSerial\Arduino_STM32_genericSTM32F103Z\Release\variant\boards.cpp.o
 .text._ZL20timer_default_configP9timer_dev
                0x080022b8       0x9e C:\Users\moseichuk\AppData\Local\Temp\VMBuilds\TestSerial\Arduino_STM32_genericSTM32F103Z\Release\variant\boards.cpp.o
 .text._Z9boardInitv
                0x08002356        0x2 C:\Users\moseichuk\AppData\Local\Temp\VMBuilds\TestSerial\Arduino_STM32_genericSTM32F103Z\Release\variant\boards.cpp.o
                0x08002356                boardInit()
 .text._Z4initv
                0x08002358       0xbc C:\Users\moseichuk\AppData\Local\Temp\VMBuilds\TestSerial\Arduino_STM32_genericSTM32F103Z\Release\variant\boards.cpp.o
                0x08002358                init()
 .text._ZN6wirish4priv15board_reset_pllEv
                0x08002414        0x2 C:\Users\moseichuk\AppData\Local\Temp\VMBuilds\TestSerial\Arduino_STM32_genericSTM32F103Z\Release\variant\boards_setup.cpp.o
                0x08002414                wirish::priv::board_reset_pll()
 .text._ZN6wirish4priv28board_setup_clock_prescalersEv
                0x08002416       0x2e C:\Users\moseichuk\AppData\Local\Temp\VMBuilds\TestSerial\Arduino_STM32_genericSTM32F103Z\Release\variant\boards_setup.cpp.o
                0x08002416                wirish::priv::board_setup_clock_prescalers()
 .text._ZN6wirish4priv16board_setup_gpioEv
                0x08002444        0x4 C:\Users\moseichuk\AppData\Local\Temp\VMBuilds\TestSerial\Arduino_STM32_genericSTM32F103Z\Release\variant\boards_setup.cpp.o
                0x08002444                wirish::priv::board_setup_gpio()
 .text._ZN6wirish4priv15board_setup_usbEv
                0x08002448       0x54 C:\Users\moseichuk\AppData\Local\Temp\VMBuilds\TestSerial\Arduino_STM32_genericSTM32F103Z\Release\variant\boards_setup.cpp.o
                0x08002448                wirish::priv::board_setup_usb()
 .text._ZN6wirish4priv11series_initEv
                0x0800249c        0x4 C:\Users\moseichuk\AppData\Local\Temp\VMBuilds\TestSerial\Arduino_STM32_genericSTM32F103Z\Release\variant\boards_setup.cpp.o
                0x0800249c                wirish::priv::series_init()
 .text          0x080024a0       0x10 C:\Users\moseichuk\AppData\Local\Temp\VMBuilds\TestSerial\Arduino_STM32_genericSTM32F103Z\Release\variant\start.S.o
                0x080024a0                __start__
 .text.start_c  0x080024b0       0x64 C:\Users\moseichuk\AppData\Local\Temp\VMBuilds\TestSerial\Arduino_STM32_genericSTM32F103Z\Release\variant\start_c.c.o
                0x080024b0                start_c
 .text._exit    0x08002514        0x2 C:\Users\moseichuk\AppData\Local\Temp\VMBuilds\TestSerial\Arduino_STM32_genericSTM32F103Z\Release\variant\syscalls.c.o
                0x08002514                _exit
 *fill*         0x08002516        0xa 
 .text          0x08002520       0x60 C:\Users\moseichuk\AppData\Local\Temp\VMBuilds\TestSerial\Arduino_STM32_genericSTM32F103Z\Release\core.a(exc.S.o)
                0x08002520                __exc_nmi
                0x08002524                __exc_hardfault
                0x08002528                __exc_memmanage
                0x0800252c                __exc_busfault
                0x08002530                __exc_usagefault
 .text          0x08002580        0x2 C:\Users\moseichuk\AppData\Local\Temp\VMBuilds\TestSerial\Arduino_STM32_genericSTM32F103Z\Release\core.a(isrs.S.o)
                0x08002580                __stm32reservedexception9
                0x08002580                __irq_sdio
                0x08002580                __irq_fsmc
                0x08002580                __exc_debug_monitor
                0x08002580                __exc_svc
                0x08002580                __irq_can_rx1
                0x08002580                __irq_spi2
                0x08002580                __irq_can_sce
                0x08002580                __irq_pvd
                0x08002580                __irq_tamper
                0x08002580                __default_handler
                0x08002580                __irq_wwdg
                0x08002580                __stm32reservedexception10
                0x08002580                __irq_flash
                0x08002580                __stm32reservedexception13
                0x08002580                __irq_rtc
                0x08002580                __irq_spi1
                0x08002580                __stm32reservedexception7
                0x08002580                __irq_usb_hp_can_tx
                0x08002580                __irq_rtcalarm
                0x08002580                __irq_spi3
                0x08002580                __stm32reservedexception8
                0x08002580                __exc_pendsv
                0x08002580                __irq_usbwakeup
                0x08002580                __irq_rcc
 .text.adc_init
                0x08002582       0x14 C:\Users\moseichuk\AppData\Local\Temp\VMBuilds\TestSerial\Arduino_STM32_genericSTM32F103Z\Release\core.a(adc.c.o)
                0x08002582                adc_init
 .text.adc_set_extsel
                0x08002596       0x12 C:\Users\moseichuk\AppData\Local\Temp\VMBuilds\TestSerial\Arduino_STM32_genericSTM32F103Z\Release\core.a(adc.c.o)
                0x08002596                adc_set_extsel
 .text.adc_set_sample_rate
                0x080025a8       0x30 C:\Users\moseichuk\AppData\Local\Temp\VMBuilds\TestSerial\Arduino_STM32_genericSTM32F103Z\Release\core.a(adc.c.o)
                0x080025a8                adc_set_sample_rate
 .text.__irq_adc
                0x080025d8       0x50 C:\Users\moseichuk\AppData\Local\Temp\VMBuilds\TestSerial\Arduino_STM32_genericSTM32F103Z\Release\core.a(adc_f1.c.o)
                0x080025d8                __irq_adc
 .text.__irq_adc3
                0x08002628       0x50 C:\Users\moseichuk\AppData\Local\Temp\VMBuilds\TestSerial\Arduino_STM32_genericSTM32F103Z\Release\core.a(adc_f1.c.o)
                0x08002628                __irq_adc3
 .text.adc_calibrate
                0x08002678       0x24 C:\Users\moseichuk\AppData\Local\Temp\VMBuilds\TestSerial\Arduino_STM32_genericSTM32F103Z\Release\core.a(adc_f1.c.o)
                0x08002678                adc_calibrate
 .text.adc_set_prescaler
                0x0800269c        0x8 C:\Users\moseichuk\AppData\Local\Temp\VMBuilds\TestSerial\Arduino_STM32_genericSTM32F103Z\Release\core.a(adc_f1.c.o)
                0x0800269c                adc_set_prescaler
 .text.adc_foreach
                0x080026a4       0x24 C:\Users\moseichuk\AppData\Local\Temp\VMBuilds\TestSerial\Arduino_STM32_genericSTM32F103Z\Release\core.a(adc_f1.c.o)
                0x080026a4                adc_foreach
 .text.adc_enable_single_swstart
                0x080026c8       0x36 C:\Users\moseichuk\AppData\Local\Temp\VMBuilds\TestSerial\Arduino_STM32_genericSTM32F103Z\Release\core.a(adc_f1.c.o)
                0x080026c8                adc_enable_single_swstart
 *fill*         0x080026fe        0x2 
 .text.__irq_dma1_channel1
                0x08002700       0x18 C:\Users\moseichuk\AppData\Local\Temp\VMBuilds\TestSerial\Arduino_STM32_genericSTM32F103Z\Release\core.a(dma_f1.c.o)
                0x08002700                __irq_dma1_channel1
 .text.__irq_dma1_channel2
                0x08002718       0x18 C:\Users\moseichuk\AppData\Local\Temp\VMBuilds\TestSerial\Arduino_STM32_genericSTM32F103Z\Release\core.a(dma_f1.c.o)
                0x08002718                __irq_dma1_channel2
 .text.__irq_dma1_channel3
                0x08002730       0x1c C:\Users\moseichuk\AppData\Local\Temp\VMBuilds\TestSerial\Arduino_STM32_genericSTM32F103Z\Release\core.a(dma_f1.c.o)
                0x08002730                __irq_dma1_channel3
 .text.__irq_dma1_channel4
                0x0800274c       0x1c C:\Users\moseichuk\AppData\Local\Temp\VMBuilds\TestSerial\Arduino_STM32_genericSTM32F103Z\Release\core.a(dma_f1.c.o)
                0x0800274c                __irq_dma1_channel4
 .text.__irq_dma1_channel5
                0x08002768       0x1c C:\Users\moseichuk\AppData\Local\Temp\VMBuilds\TestSerial\Arduino_STM32_genericSTM32F103Z\Release\core.a(dma_f1.c.o)
                0x08002768                __irq_dma1_channel5
 .text.__irq_dma1_channel6
                0x08002784       0x1c C:\Users\moseichuk\AppData\Local\Temp\VMBuilds\TestSerial\Arduino_STM32_genericSTM32F103Z\Release\core.a(dma_f1.c.o)
                0x08002784                __irq_dma1_channel6
 .text.__irq_dma1_channel7
                0x080027a0       0x1c C:\Users\moseichuk\AppData\Local\Temp\VMBuilds\TestSerial\Arduino_STM32_genericSTM32F103Z\Release\core.a(dma_f1.c.o)
                0x080027a0                __irq_dma1_channel7
 .text.__irq_dma2_channel1
                0x080027bc       0x18 C:\Users\moseichuk\AppData\Local\Temp\VMBuilds\TestSerial\Arduino_STM32_genericSTM32F103Z\Release\core.a(dma_f1.c.o)
                0x080027bc                __irq_dma2_channel1
 .text.__irq_dma2_channel2
                0x080027d4       0x18 C:\Users\moseichuk\AppData\Local\Temp\VMBuilds\TestSerial\Arduino_STM32_genericSTM32F103Z\Release\core.a(dma_f1.c.o)
                0x080027d4                __irq_dma2_channel2
 .text.__irq_dma2_channel3
                0x080027ec       0x1c C:\Users\moseichuk\AppData\Local\Temp\VMBuilds\TestSerial\Arduino_STM32_genericSTM32F103Z\Release\core.a(dma_f1.c.o)
                0x080027ec                __irq_dma2_channel3
 .text.__irq_dma2_channel4_5
                0x08002808       0x4c C:\Users\moseichuk\AppData\Local\Temp\VMBuilds\TestSerial\Arduino_STM32_genericSTM32F103Z\Release\core.a(dma_f1.c.o)
                0x08002808                __irq_dma2_channel4_5
 .text.__irq_exti0
                0x08002854       0x20 C:\Users\moseichuk\AppData\Local\Temp\VMBuilds\TestSerial\Arduino_STM32_genericSTM32F103Z\Release\core.a(exti.c.o)
                0x08002854                __irq_exti0
 .text.__irq_exti1
                0x08002874       0x20 C:\Users\moseichuk\AppData\Local\Temp\VMBuilds\TestSerial\Arduino_STM32_genericSTM32F103Z\Release\core.a(exti.c.o)
                0x08002874                __irq_exti1
 .text.__irq_exti2
                0x08002894       0x20 C:\Users\moseichuk\AppData\Local\Temp\VMBuilds\TestSerial\Arduino_STM32_genericSTM32F103Z\Release\core.a(exti.c.o)
                0x08002894                __irq_exti2
 .text.__irq_exti3
                0x080028b4       0x20 C:\Users\moseichuk\AppData\Local\Temp\VMBuilds\TestSerial\Arduino_STM32_genericSTM32F103Z\Release\core.a(exti.c.o)
                0x080028b4                __irq_exti3
 .text.__irq_exti4
                0x080028d4       0x20 C:\Users\moseichuk\AppData\Local\Temp\VMBuilds\TestSerial\Arduino_STM32_genericSTM32F103Z\Release\core.a(exti.c.o)
                0x080028d4                __irq_exti4
 .text.__irq_exti9_5
                0x080028f4       0x44 C:\Users\moseichuk\AppData\Local\Temp\VMBuilds\TestSerial\Arduino_STM32_genericSTM32F103Z\Release\core.a(exti.c.o)
                0x080028f4                __irq_exti9_5
 .text.__irq_exti15_10
                0x08002938       0x44 C:\Users\moseichuk\AppData\Local\Temp\VMBuilds\TestSerial\Arduino_STM32_genericSTM32F103Z\Release\core.a(exti.c.o)
                0x08002938                __irq_exti15_10
 .text.flash_set_latency
                0x0800297c       0x14 C:\Users\moseichuk\AppData\Local\Temp\VMBuilds\TestSerial\Arduino_STM32_genericSTM32F103Z\Release\core.a(flash.c.o)
                0x0800297c                flash_set_latency
 .text.gpio_init_all
                0x08002990       0x4c C:\Users\moseichuk\AppData\Local\Temp\VMBuilds\TestSerial\Arduino_STM32_genericSTM32F103Z\Release\core.a(gpio_f1.c.o)
                0x08002990                gpio_init_all
 .text.gpio_set_mode
                0x080029dc       0x50 C:\Users\moseichuk\AppData\Local\Temp\VMBuilds\TestSerial\Arduino_STM32_genericSTM32F103Z\Release\core.a(gpio_f1.c.o)
                0x080029dc                gpio_set_mode
 .text.afio_init
                0x08002a2c       0x12 C:\Users\moseichuk\AppData\Local\Temp\VMBuilds\TestSerial\Arduino_STM32_genericSTM32F103Z\Release\core.a(gpio_f1.c.o)
                0x08002a2c                afio_init
 *fill*         0x08002a3e        0x2 
 .text.__irq_i2c1_ev
                0x08002a40        0xc C:\Users\moseichuk\AppData\Local\Temp\VMBuilds\TestSerial\Arduino_STM32_genericSTM32F103Z\Release\core.a(i2c_f1.c.o)
                0x08002a40                __irq_i2c1_ev
 .text.__irq_i2c2_ev
                0x08002a4c        0xc C:\Users\moseichuk\AppData\Local\Temp\VMBuilds\TestSerial\Arduino_STM32_genericSTM32F103Z\Release\core.a(i2c_f1.c.o)
                0x08002a4c                __irq_i2c2_ev
 .text.__irq_i2c1_er
                0x08002a58        0xc C:\Users\moseichuk\AppData\Local\Temp\VMBuilds\TestSerial\Arduino_STM32_genericSTM32F103Z\Release\core.a(i2c_f1.c.o)
                0x08002a58                __irq_i2c1_er
 .text.__irq_i2c2_er
                0x08002a64        0xc C:\Users\moseichuk\AppData\Local\Temp\VMBuilds\TestSerial\Arduino_STM32_genericSTM32F103Z\Release\core.a(i2c_f1.c.o)
                0x08002a64                __irq_i2c2_er
 .text._i2c_irq_priority_fixup
                0x08002a70       0x1c C:\Users\moseichuk\AppData\Local\Temp\VMBuilds\TestSerial\Arduino_STM32_genericSTM32F103Z\Release\core.a(i2c_f1.c.o)
                0x08002a70                _i2c_irq_priority_fixup
 .text.nvic_irq_set_priority
                0x08002a8c       0x28 C:\Users\moseichuk\AppData\Local\Temp\VMBuilds\TestSerial\Arduino_STM32_genericSTM32F103Z\Release\core.a(nvic.c.o)
                0x08002a8c                nvic_irq_set_priority
 .text.nvic_init
                0x08002ab4       0x30 C:\Users\moseichuk\AppData\Local\Temp\VMBuilds\TestSerial\Arduino_STM32_genericSTM32F103Z\Release\core.a(nvic.c.o)
                0x08002ab4                nvic_init
 .text.nvic_sys_reset
                0x08002ae4       0x1c C:\Users\moseichuk\AppData\Local\Temp\VMBuilds\TestSerial\Arduino_STM32_genericSTM32F103Z\Release\core.a(nvic.c.o)
                0x08002ae4                nvic_sys_reset
 .text.rcc_dev_clk
                0x08002b00        0xc C:\Users\moseichuk\AppData\Local\Temp\VMBuilds\TestSerial\Arduino_STM32_genericSTM32F103Z\Release\core.a(rcc.c.o)
                0x08002b00                rcc_dev_clk
 .text.rcc_switch_sysclk
                0x08002b0c       0x20 C:\Users\moseichuk\AppData\Local\Temp\VMBuilds\TestSerial\Arduino_STM32_genericSTM32F103Z\Release\core.a(rcc.c.o)
                0x08002b0c                rcc_switch_sysclk
 .text.rcc_turn_on_clk
                0x08002b2c       0x1a C:\Users\moseichuk\AppData\Local\Temp\VMBuilds\TestSerial\Arduino_STM32_genericSTM32F103Z\Release\core.a(rcc.c.o)
                0x08002b2c                rcc_turn_on_clk
 .text.rcc_turn_off_clk
                0x08002b46       0x1c C:\Users\moseichuk\AppData\Local\Temp\VMBuilds\TestSerial\Arduino_STM32_genericSTM32F103Z\Release\core.a(rcc.c.o)
                0x08002b46                rcc_turn_off_clk
 .text.rcc_is_clk_ready
                0x08002b62       0x18 C:\Users\moseichuk\AppData\Local\Temp\VMBuilds\TestSerial\Arduino_STM32_genericSTM32F103Z\Release\core.a(rcc.c.o)
                0x08002b62                rcc_is_clk_ready
 *fill*         0x08002b7a        0x2 
 .text.rcc_configure_pll
                0x08002b7c       0x18 C:\Users\moseichuk\AppData\Local\Temp\VMBuilds\TestSerial\Arduino_STM32_genericSTM32F103Z\Release\core.a(rcc_f1.c.o)
                0x08002b7c                rcc_configure_pll
 .text.rcc_clk_enable
                0x08002b94       0x30 C:\Users\moseichuk\AppData\Local\Temp\VMBuilds\TestSerial\Arduino_STM32_genericSTM32F103Z\Release\core.a(rcc_f1.c.o)
                0x08002b94                rcc_clk_enable
 .text.rcc_reset_dev
                0x08002bc4       0x34 C:\Users\moseichuk\AppData\Local\Temp\VMBuilds\TestSerial\Arduino_STM32_genericSTM32F103Z\Release\core.a(rcc_f1.c.o)
                0x08002bc4                rcc_reset_dev
 .text.rcc_set_prescaler
                0x08002bf8       0x20 C:\Users\moseichuk\AppData\Local\Temp\VMBuilds\TestSerial\Arduino_STM32_genericSTM32F103Z\Release\core.a(rcc_f1.c.o)
                0x08002bf8                rcc_set_prescaler
 .text.rcc_clk_disable
                0x08002c18       0x30 C:\Users\moseichuk\AppData\Local\Temp\VMBuilds\TestSerial\Arduino_STM32_genericSTM32F103Z\Release\core.a(rcc_f1.c.o)
                0x08002c18                rcc_clk_disable
 .text.systick_init
                0x08002c48       0x10 C:\Users\moseichuk\AppData\Local\Temp\VMBuilds\TestSerial\Arduino_STM32_genericSTM32F103Z\Release\core.a(systick.c.o)
                0x08002c48                systick_init
 .text.__exc_systick
                0x08002c58       0x1c C:\Users\moseichuk\AppData\Local\Temp\VMBuilds\TestSerial\Arduino_STM32_genericSTM32F103Z\Release\core.a(systick.c.o)
                0x08002c58                __exc_systick
 .text.timer_foreach
                0x08002c74       0x48 C:\Users\moseichuk\AppData\Local\Temp\VMBuilds\TestSerial\Arduino_STM32_genericSTM32F103Z\Release\core.a(timer.c.o)
                0x08002c74                timer_foreach
 .text.timer_init
                0x08002cbc       0x14 C:\Users\moseichuk\AppData\Local\Temp\VMBuilds\TestSerial\Arduino_STM32_genericSTM32F103Z\Release\core.a(timer.c.o)
                0x08002cbc                timer_init
 .text.timer_has_cc_channel
                0x08002cd0       0x30 C:\Users\moseichuk\AppData\Local\Temp\VMBuilds\TestSerial\Arduino_STM32_genericSTM32F103Z\Release\core.a(timer.c.o)
                0x08002cd0                timer_has_cc_channel
 .text.__irq_tim1_brk
                0x08002d00       0x24 C:\Users\moseichuk\AppData\Local\Temp\VMBuilds\TestSerial\Arduino_STM32_genericSTM32F103Z\Release\core.a(timer.c.o)
                0x08002d00                __irq_tim1_brk
 .text.__irq_tim1_up
                0x08002d24       0x24 C:\Users\moseichuk\AppData\Local\Temp\VMBuilds\TestSerial\Arduino_STM32_genericSTM32F103Z\Release\core.a(timer.c.o)
                0x08002d24                __irq_tim1_up
 .text.__irq_tim1_trg_com
                0x08002d48       0x38 C:\Users\moseichuk\AppData\Local\Temp\VMBuilds\TestSerial\Arduino_STM32_genericSTM32F103Z\Release\core.a(timer.c.o)
                0x08002d48                __irq_tim1_trg_com
 .text.__irq_tim1_cc
                0x08002d80       0x54 C:\Users\moseichuk\AppData\Local\Temp\VMBuilds\TestSerial\Arduino_STM32_genericSTM32F103Z\Release\core.a(timer.c.o)
                0x08002d80                __irq_tim1_cc
 .text.__irq_tim2
                0x08002dd4       0x70 C:\Users\moseichuk\AppData\Local\Temp\VMBuilds\TestSerial\Arduino_STM32_genericSTM32F103Z\Release\core.a(timer.c.o)
                0x08002dd4                __irq_tim2
 .text.__irq_tim3
                0x08002e44       0x70 C:\Users\moseichuk\AppData\Local\Temp\VMBuilds\TestSerial\Arduino_STM32_genericSTM32F103Z\Release\core.a(timer.c.o)
                0x08002e44                __irq_tim3
 .text.__irq_tim4
                0x08002eb4       0x70 C:\Users\moseichuk\AppData\Local\Temp\VMBuilds\TestSerial\Arduino_STM32_genericSTM32F103Z\Release\core.a(timer.c.o)
                0x08002eb4                __irq_tim4
 .text.__irq_tim5
                0x08002f24       0x70 C:\Users\moseichuk\AppData\Local\Temp\VMBuilds\TestSerial\Arduino_STM32_genericSTM32F103Z\Release\core.a(timer.c.o)
                0x08002f24                __irq_tim5
 .text.__irq_tim6
                0x08002f94       0x24 C:\Users\moseichuk\AppData\Local\Temp\VMBuilds\TestSerial\Arduino_STM32_genericSTM32F103Z\Release\core.a(timer.c.o)
                0x08002f94                __irq_tim6
 .text.__irq_tim7
                0x08002fb8       0x24 C:\Users\moseichuk\AppData\Local\Temp\VMBuilds\TestSerial\Arduino_STM32_genericSTM32F103Z\Release\core.a(timer.c.o)
                0x08002fb8                __irq_tim7
 .text.__irq_tim8_brk
                0x08002fdc       0x24 C:\Users\moseichuk\AppData\Local\Temp\VMBuilds\TestSerial\Arduino_STM32_genericSTM32F103Z\Release\core.a(timer.c.o)
                0x08002fdc                __irq_tim8_brk
 .text.__irq_tim8_up
                0x08003000       0x24 C:\Users\moseichuk\AppData\Local\Temp\VMBuilds\TestSerial\Arduino_STM32_genericSTM32F103Z\Release\core.a(timer.c.o)
                0x08003000                __irq_tim8_up
 .text.__irq_tim8_trg_com
                0x08003024       0x38 C:\Users\moseichuk\AppData\Local\Temp\VMBuilds\TestSerial\Arduino_STM32_genericSTM32F103Z\Release\core.a(timer.c.o)
                0x08003024                __irq_tim8_trg_com
 .text.__irq_tim8_cc
                0x0800305c       0x54 C:\Users\moseichuk\AppData\Local\Temp\VMBuilds\TestSerial\Arduino_STM32_genericSTM32F103Z\Release\core.a(timer.c.o)
                0x0800305c                __irq_tim8_cc
 .text.rb_remove
                0x080030b0       0x24 C:\Users\moseichuk\AppData\Local\Temp\VMBuilds\TestSerial\Arduino_STM32_genericSTM32F103Z\Release\core.a(usart_f1.c.o)
 .text.rb_push_insert
                0x080030d4       0x52 C:\Users\moseichuk\AppData\Local\Temp\VMBuilds\TestSerial\Arduino_STM32_genericSTM32F103Z\Release\core.a(usart_f1.c.o)
 *fill*         0x08003126        0x2 
 .text.__irq_usart1
                0x08003128       0x54 C:\Users\moseichuk\AppData\Local\Temp\VMBuilds\TestSerial\Arduino_STM32_genericSTM32F103Z\Release\core.a(usart_f1.c.o)
                0x08003128                __irq_usart1
 .text.__irq_usart2
                0x0800317c       0x54 C:\Users\moseichuk\AppData\Local\Temp\VMBuilds\TestSerial\Arduino_STM32_genericSTM32F103Z\Release\core.a(usart_f1.c.o)
                0x0800317c                __irq_usart2
 .text.__irq_usart3
                0x080031d0       0x54 C:\Users\moseichuk\AppData\Local\Temp\VMBuilds\TestSerial\Arduino_STM32_genericSTM32F103Z\Release\core.a(usart_f1.c.o)
                0x080031d0                __irq_usart3
 .text.__irq_uart4
                0x08003224       0x54 C:\Users\moseichuk\AppData\Local\Temp\VMBuilds\TestSerial\Arduino_STM32_genericSTM32F103Z\Release\core.a(usart_f1.c.o)
                0x08003224                __irq_uart4
 .text.__irq_uart5
                0x08003278       0x54 C:\Users\moseichuk\AppData\Local\Temp\VMBuilds\TestSerial\Arduino_STM32_genericSTM32F103Z\Release\core.a(usart_f1.c.o)
                0x08003278                __irq_uart5
 .text.throb    0x080032cc       0x4c C:\Users\moseichuk\AppData\Local\Temp\VMBuilds\TestSerial\Arduino_STM32_genericSTM32F103Z\Release\core.a(util.c.o)
                0x080032cc                throb
 .text.__error  0x08003318       0x14 C:\Users\moseichuk\AppData\Local\Temp\VMBuilds\TestSerial\Arduino_STM32_genericSTM32F103Z\Release\core.a(util.c.o)
                0x08003318                __error
 .text.usb_resume
                0x0800332c       0xb4 C:\Users\moseichuk\AppData\Local\Temp\VMBuilds\TestSerial\Arduino_STM32_genericSTM32F103Z\Release\core.a(usb.c.o)
 .text.usb_init_usblib
                0x080033e0       0x48 C:\Users\moseichuk\AppData\Local\Temp\VMBuilds\TestSerial\Arduino_STM32_genericSTM32F103Z\Release\core.a(usb.c.o)
                0x080033e0                usb_init_usblib
 .text.__irq_usb_lp_can_rx0
                0x08003428      0x1c8 C:\Users\moseichuk\AppData\Local\Temp\VMBuilds\TestSerial\Arduino_STM32_genericSTM32F103Z\Release\core.a(usb.c.o)
                0x08003428                __irq_usb_lp_can_rx0
 .text.usb_set_ep_rx_stat
                0x080035f0       0x22 C:\Users\moseichuk\AppData\Local\Temp\VMBuilds\TestSerial\Arduino_STM32_genericSTM32F103Z\Release\core.a(usb_cdcacm.c.o)
 *fill*         0x08003612        0x2 
 .text.vcomGetSetLineCoding
                0x08003614       0x18 C:\Users\moseichuk\AppData\Local\Temp\VMBuilds\TestSerial\Arduino_STM32_genericSTM32F103Z\Release\core.a(usb_cdcacm.c.o)
 .text.usbDataSetup
                0x0800362c       0x54 C:\Users\moseichuk\AppData\Local\Temp\VMBuilds\TestSerial\Arduino_STM32_genericSTM32F103Z\Release\core.a(usb_cdcacm.c.o)
 .text.usbNoDataSetup
                0x08003680       0x50 C:\Users\moseichuk\AppData\Local\Temp\VMBuilds\TestSerial\Arduino_STM32_genericSTM32F103Z\Release\core.a(usb_cdcacm.c.o)
 .text.usbGetInterfaceSetting
                0x080036d0       0x10 C:\Users\moseichuk\AppData\Local\Temp\VMBuilds\TestSerial\Arduino_STM32_genericSTM32F103Z\Release\core.a(usb_cdcacm.c.o)
 .text.usbSetConfiguration
                0x080036e0       0x1c C:\Users\moseichuk\AppData\Local\Temp\VMBuilds\TestSerial\Arduino_STM32_genericSTM32F103Z\Release\core.a(usb_cdcacm.c.o)
 .text.usbSetDeviceAddress
                0x080036fc       0x10 C:\Users\moseichuk\AppData\Local\Temp\VMBuilds\TestSerial\Arduino_STM32_genericSTM32F103Z\Release\core.a(usb_cdcacm.c.o)
 .text.usbGetStringDescriptor
                0x0800370c       0x20 C:\Users\moseichuk\AppData\Local\Temp\VMBuilds\TestSerial\Arduino_STM32_genericSTM32F103Z\Release\core.a(usb_cdcacm.c.o)
 .text.usbGetConfigDescriptor
                0x0800372c        0xc C:\Users\moseichuk\AppData\Local\Temp\VMBuilds\TestSerial\Arduino_STM32_genericSTM32F103Z\Release\core.a(usb_cdcacm.c.o)
 .text.usbGetDeviceDescriptor
                0x08003738        0xc C:\Users\moseichuk\AppData\Local\Temp\VMBuilds\TestSerial\Arduino_STM32_genericSTM32F103Z\Release\core.a(usb_cdcacm.c.o)
 .text.usbInit  0x08003744       0x44 C:\Users\moseichuk\AppData\Local\Temp\VMBuilds\TestSerial\Arduino_STM32_genericSTM32F103Z\Release\core.a(usb_cdcacm.c.o)
 .text.vcomDataTxCb
                0x08003788       0xa0 C:\Users\moseichuk\AppData\Local\Temp\VMBuilds\TestSerial\Arduino_STM32_genericSTM32F103Z\Release\core.a(usb_cdcacm.c.o)
 .text.usbReset
                0x08003828      0x160 C:\Users\moseichuk\AppData\Local\Temp\VMBuilds\TestSerial\Arduino_STM32_genericSTM32F103Z\Release\core.a(usb_cdcacm.c.o)
 .text.vcomDataRxCb
                0x08003988       0x7c C:\Users\moseichuk\AppData\Local\Temp\VMBuilds\TestSerial\Arduino_STM32_genericSTM32F103Z\Release\core.a(usb_cdcacm.c.o)
 .text.usb_cdcacm_set_hooks
                0x08003a04       0x1c C:\Users\moseichuk\AppData\Local\Temp\VMBuilds\TestSerial\Arduino_STM32_genericSTM32F103Z\Release\core.a(usb_cdcacm.c.o)
                0x08003a04                usb_cdcacm_set_hooks
 .text.usb_cdcacm_enable
                0x08003a20       0x38 C:\Users\moseichuk\AppData\Local\Temp\VMBuilds\TestSerial\Arduino_STM32_genericSTM32F103Z\Release\core.a(usb_cdcacm.c.o)
                0x08003a20                usb_cdcacm_enable
 .text.usb_cdcacm_tx
                0x08003a58       0x60 C:\Users\moseichuk\AppData\Local\Temp\VMBuilds\TestSerial\Arduino_STM32_genericSTM32F103Z\Release\core.a(usb_cdcacm.c.o)
                0x08003a58                usb_cdcacm_tx
 .text.usb_cdcacm_data_available
                0x08003ab8       0x18 C:\Users\moseichuk\AppData\Local\Temp\VMBuilds\TestSerial\Arduino_STM32_genericSTM32F103Z\Release\core.a(usb_cdcacm.c.o)
                0x08003ab8                usb_cdcacm_data_available
 .text.usb_cdcacm_peek
                0x08003ad0       0x38 C:\Users\moseichuk\AppData\Local\Temp\VMBuilds\TestSerial\Arduino_STM32_genericSTM32F103Z\Release\core.a(usb_cdcacm.c.o)
                0x08003ad0                usb_cdcacm_peek
 .text.usb_cdcacm_rx
                0x08003b08       0x34 C:\Users\moseichuk\AppData\Local\Temp\VMBuilds\TestSerial\Arduino_STM32_genericSTM32F103Z\Release\core.a(usb_cdcacm.c.o)
                0x08003b08                usb_cdcacm_rx
 .text.usb_cdcacm_peek_ex
                0x08003b3c       0x40 C:\Users\moseichuk\AppData\Local\Temp\VMBuilds\TestSerial\Arduino_STM32_genericSTM32F103Z\Release\core.a(usb_cdcacm.c.o)
                0x08003b3c                usb_cdcacm_peek_ex
 .text.usb_cdcacm_get_dtr
                0x08003b7c       0x10 C:\Users\moseichuk\AppData\Local\Temp\VMBuilds\TestSerial\Arduino_STM32_genericSTM32F103Z\Release\core.a(usb_cdcacm.c.o)
                0x08003b7c                usb_cdcacm_get_dtr
 .text.usb_set_ep_rx_count
                0x08003b8c       0x40 C:\Users\moseichuk\AppData\Local\Temp\VMBuilds\TestSerial\Arduino_STM32_genericSTM32F103Z\Release\core.a(usb_reg_map.c.o)
                0x08003b8c                usb_set_ep_rx_count
 .text.Standard_GetConfiguration
                0x08003bcc       0x24 C:\Users\moseichuk\AppData\Local\Temp\VMBuilds\TestSerial\Arduino_STM32_genericSTM32F103Z\Release\core.a(usb_core.c.o)
                0x08003bcc                Standard_GetConfiguration
 .text.Standard_GetInterface
                0x08003bf0       0x24 C:\Users\moseichuk\AppData\Local\Temp\VMBuilds\TestSerial\Arduino_STM32_genericSTM32F103Z\Release\core.a(usb_core.c.o)
                0x08003bf0                Standard_GetInterface
 .text.Standard_GetStatus
                0x08003c14       0x90 C:\Users\moseichuk\AppData\Local\Temp\VMBuilds\TestSerial\Arduino_STM32_genericSTM32F103Z\Release\core.a(usb_core.c.o)
                0x08003c14                Standard_GetStatus
 .text.DataStageIn
                0x08003ca4       0xa8 C:\Users\moseichuk\AppData\Local\Temp\VMBuilds\TestSerial\Arduino_STM32_genericSTM32F103Z\Release\core.a(usb_core.c.o)
 .text.Standard_SetConfiguration
                0x08003d4c       0x38 C:\Users\moseichuk\AppData\Local\Temp\VMBuilds\TestSerial\Arduino_STM32_genericSTM32F103Z\Release\core.a(usb_core.c.o)
                0x08003d4c                Standard_SetConfiguration
 .text.Standard_SetInterface
                0x08003d84       0x48 C:\Users\moseichuk\AppData\Local\Temp\VMBuilds\TestSerial\Arduino_STM32_genericSTM32F103Z\Release\core.a(usb_core.c.o)
                0x08003d84                Standard_SetInterface
 .text.Standard_ClearFeature
                0x08003dcc       0xd0 C:\Users\moseichuk\AppData\Local\Temp\VMBuilds\TestSerial\Arduino_STM32_genericSTM32F103Z\Release\core.a(usb_core.c.o)
                0x08003dcc                Standard_ClearFeature
 .text.Standard_SetEndPointFeature
                0x08003e9c       0x84 C:\Users\moseichuk\AppData\Local\Temp\VMBuilds\TestSerial\Arduino_STM32_genericSTM32F103Z\Release\core.a(usb_core.c.o)
                0x08003e9c                Standard_SetEndPointFeature
 .text.Standard_SetDeviceFeature
                0x08003f20       0x24 C:\Users\moseichuk\AppData\Local\Temp\VMBuilds\TestSerial\Arduino_STM32_genericSTM32F103Z\Release\core.a(usb_core.c.o)
                0x08003f20                Standard_SetDeviceFeature
 .text.Standard_GetDescriptorData
                0x08003f44       0x1c C:\Users\moseichuk\AppData\Local\Temp\VMBuilds\TestSerial\Arduino_STM32_genericSTM32F103Z\Release\core.a(usb_core.c.o)
                0x08003f44                Standard_GetDescriptorData
 .text.Post0_Process
                0x08003f60       0x40 C:\Users\moseichuk\AppData\Local\Temp\VMBuilds\TestSerial\Arduino_STM32_genericSTM32F103Z\Release\core.a(usb_core.c.o)
                0x08003f60                Post0_Process
 .text.Setup0_Process
                0x08003fa0      0x2d0 C:\Users\moseichuk\AppData\Local\Temp\VMBuilds\TestSerial\Arduino_STM32_genericSTM32F103Z\Release\core.a(usb_core.c.o)
                0x08003fa0                Setup0_Process
 .text.Out0_Process
                0x08004270       0xc8 C:\Users\moseichuk\AppData\Local\Temp\VMBuilds\TestSerial\Arduino_STM32_genericSTM32F103Z\Release\core.a(usb_core.c.o)
                0x08004270                Out0_Process
 .text.SetDeviceAddress
                0x08004338       0x38 C:\Users\moseichuk\AppData\Local\Temp\VMBuilds\TestSerial\Arduino_STM32_genericSTM32F103Z\Release\core.a(usb_core.c.o)
                0x08004338                SetDeviceAddress
 .text.In0_Process
                0x08004370       0x5c C:\Users\moseichuk\AppData\Local\Temp\VMBuilds\TestSerial\Arduino_STM32_genericSTM32F103Z\Release\core.a(usb_core.c.o)
                0x08004370                In0_Process
 .text.NOP_Process
                0x080043cc        0x2 C:\Users\moseichuk\AppData\Local\Temp\VMBuilds\TestSerial\Arduino_STM32_genericSTM32F103Z\Release\core.a(usb_core.c.o)
                0x080043cc                NOP_Process
 .text.UserToPMABufferCopy
                0x080043ce       0x30 C:\Users\moseichuk\AppData\Local\Temp\VMBuilds\TestSerial\Arduino_STM32_genericSTM32F103Z\Release\core.a(usb_mem.c.o)
                0x080043ce                UserToPMABufferCopy
 .text.PMAToUserBufferCopy
                0x080043fe       0x24 C:\Users\moseichuk\AppData\Local\Temp\VMBuilds\TestSerial\Arduino_STM32_genericSTM32F103Z\Release\core.a(usb_mem.c.o)
                0x080043fe                PMAToUserBufferCopy
 .text.SetEPTxStatus
                0x08004422       0x2a C:\Users\moseichuk\AppData\Local\Temp\VMBuilds\TestSerial\Arduino_STM32_genericSTM32F103Z\Release\core.a(usb_regs.c.o)
                0x08004422                SetEPTxStatus
 .text.ClearDTOG_RX
                0x0800444c       0x20 C:\Users\moseichuk\AppData\Local\Temp\VMBuilds\TestSerial\Arduino_STM32_genericSTM32F103Z\Release\core.a(usb_regs.c.o)
                0x0800444c                ClearDTOG_RX
 .text.ClearDTOG_TX
                0x0800446c       0x20 C:\Users\moseichuk\AppData\Local\Temp\VMBuilds\TestSerial\Arduino_STM32_genericSTM32F103Z\Release\core.a(usb_regs.c.o)
                0x0800446c                ClearDTOG_TX
 .text.GetEPTxAddr
                0x0800448c       0x1c C:\Users\moseichuk\AppData\Local\Temp\VMBuilds\TestSerial\Arduino_STM32_genericSTM32F103Z\Release\core.a(usb_regs.c.o)
                0x0800448c                GetEPTxAddr
 .text.GetEPRxAddr
                0x080044a8       0x1c C:\Users\moseichuk\AppData\Local\Temp\VMBuilds\TestSerial\Arduino_STM32_genericSTM32F103Z\Release\core.a(usb_regs.c.o)
                0x080044a8                GetEPRxAddr
 .text.SetEPTxCount
                0x080044c4       0x1c C:\Users\moseichuk\AppData\Local\Temp\VMBuilds\TestSerial\Arduino_STM32_genericSTM32F103Z\Release\core.a(usb_regs.c.o)
                0x080044c4                SetEPTxCount
 .text.SetEPRxCount
                0x080044e0       0x40 C:\Users\moseichuk\AppData\Local\Temp\VMBuilds\TestSerial\Arduino_STM32_genericSTM32F103Z\Release\core.a(usb_regs.c.o)
                0x080044e0                SetEPRxCount
 .text._ZN14HardwareSerial4readEv
                0x08004520       0x4e C:\Users\moseichuk\AppData\Local\Temp\VMBuilds\TestSerial\Arduino_STM32_genericSTM32F103Z\Release\core.a(HardwareSerial.cpp.o)
                0x08004520                HardwareSerial::read()
 .text._ZN14HardwareSerial4peekEv
                0x0800456e       0x22 C:\Users\moseichuk\AppData\Local\Temp\VMBuilds\TestSerial\Arduino_STM32_genericSTM32F103Z\Release\core.a(HardwareSerial.cpp.o)
                0x0800456e                HardwareSerial::peek()
 .text._ZN14HardwareSerial5flushEv
                0x08004590       0x1a C:\Users\moseichuk\AppData\Local\Temp\VMBuilds\TestSerial\Arduino_STM32_genericSTM32F103Z\Release\core.a(HardwareSerial.cpp.o)
                0x08004590                HardwareSerial::flush()
 .text._ZN14HardwareSerial5writeEh
                0x080045aa       0x1e C:\Users\moseichuk\AppData\Local\Temp\VMBuilds\TestSerial\Arduino_STM32_genericSTM32F103Z\Release\core.a(HardwareSerial.cpp.o)
                0x080045aa                HardwareSerial::write(unsigned char)
 .text._ZN14HardwareSerial9availableEv
                0x080045c8       0x26 C:\Users\moseichuk\AppData\Local\Temp\VMBuilds\TestSerial\Arduino_STM32_genericSTM32F103Z\Release\core.a(HardwareSerial.cpp.o)
                0x080045c8                HardwareSerial::available()
 *fill*         0x080045ee        0x2 
 .text._ZN14HardwareSerialC2EP9usart_devhh
                0x080045f0       0x1c C:\Users\moseichuk\AppData\Local\Temp\VMBuilds\TestSerial\Arduino_STM32_genericSTM32F103Z\Release\core.a(HardwareSerial.cpp.o)
                0x080045f0                HardwareSerial::HardwareSerial(usart_dev*, unsigned char, unsigned char)
                0x080045f0                HardwareSerial::HardwareSerial(usart_dev*, unsigned char, unsigned char)
 .text.startup._Z7premainv
                0x0800460c        0x4 C:\Users\moseichuk\AppData\Local\Temp\VMBuilds\TestSerial\Arduino_STM32_genericSTM32F103Z\Release\core.a(main.cpp.o)
                0x0800460c                premain()
 .text.startup.main
                0x08004610        0xc C:\Users\moseichuk\AppData\Local\Temp\VMBuilds\TestSerial\Arduino_STM32_genericSTM32F103Z\Release\core.a(main.cpp.o)
                0x08004610                main
 .text._ZN5Print5writeEPKvm
                0x0800461c       0x20 C:\Users\moseichuk\AppData\Local\Temp\VMBuilds\TestSerial\Arduino_STM32_genericSTM32F103Z\Release\core.a(Print.cpp.o)
                0x0800461c                Print::write(void const*, unsigned long)
 .text._ZN5Print5writeEPKc
                0x0800463c       0x1e C:\Users\moseichuk\AppData\Local\Temp\VMBuilds\TestSerial\Arduino_STM32_genericSTM32F103Z\Release\core.a(Print.cpp.o)
                0x0800463c                Print::write(char const*)
 .text._ZN5Print5printEc
                0x0800465a        0xa C:\Users\moseichuk\AppData\Local\Temp\VMBuilds\TestSerial\Arduino_STM32_genericSTM32F103Z\Release\core.a(Print.cpp.o)
                0x0800465a                Print::print(char)
 .text._ZN5Print5printEPKc
                0x08004664        0xa C:\Users\moseichuk\AppData\Local\Temp\VMBuilds\TestSerial\Arduino_STM32_genericSTM32F103Z\Release\core.a(Print.cpp.o)
                0x08004664                Print::print(char const*)
 .text._ZN5Print7printlnEv
                0x0800466e       0x18 C:\Users\moseichuk\AppData\Local\Temp\VMBuilds\TestSerial\Arduino_STM32_genericSTM32F103Z\Release\core.a(Print.cpp.o)
                0x0800466e                Print::println()
 .text._ZN5Print7printlnEPKc
                0x08004686       0x14 C:\Users\moseichuk\AppData\Local\Temp\VMBuilds\TestSerial\Arduino_STM32_genericSTM32F103Z\Release\core.a(Print.cpp.o)
                0x08004686                Print::println(char const*)
 .text._ZN5Print11printNumberEyh
                0x0800469a       0x84 C:\Users\moseichuk\AppData\Local\Temp\VMBuilds\TestSerial\Arduino_STM32_genericSTM32F103Z\Release\core.a(Print.cpp.o)
                0x0800469a                Print::printNumber(unsigned long long, unsigned char)
 .text._ZN5Print5printExi
                0x0800471e       0x32 C:\Users\moseichuk\AppData\Local\Temp\VMBuilds\TestSerial\Arduino_STM32_genericSTM32F103Z\Release\core.a(Print.cpp.o)
                0x0800471e                Print::print(long long, int)
 .text._ZN5Print5printEii
                0x08004750       0x12 C:\Users\moseichuk\AppData\Local\Temp\VMBuilds\TestSerial\Arduino_STM32_genericSTM32F103Z\Release\core.a(Print.cpp.o)
                0x08004750                Print::print(int, int)
 .text._ZN5Print7printlnEii
                0x08004762       0x14 C:\Users\moseichuk\AppData\Local\Temp\VMBuilds\TestSerial\Arduino_STM32_genericSTM32F103Z\Release\core.a(Print.cpp.o)
                0x08004762                Print::println(int, int)
 .text._ZN9USBSerial9availableEv
                0x08004776        0x4 C:\Users\moseichuk\AppData\Local\Temp\VMBuilds\TestSerial\Arduino_STM32_genericSTM32F103Z\Release\core.a(usb_serial.cpp.o)
                0x08004776                USBSerial::available()
 .text._ZN9USBSerial4peekEv
                0x0800477a       0x1e C:\Users\moseichuk\AppData\Local\Temp\VMBuilds\TestSerial\Arduino_STM32_genericSTM32F103Z\Release\core.a(usb_serial.cpp.o)
                0x0800477a                USBSerial::peek()
 .text._ZN9USBSerial4readEv
                0x08004798       0x1e C:\Users\moseichuk\AppData\Local\Temp\VMBuilds\TestSerial\Arduino_STM32_genericSTM32F103Z\Release\core.a(usb_serial.cpp.o)
                0x08004798                USBSerial::read()
 *fill*         0x080047b6        0x2 
 .text._ZL14ifaceSetupHookjPv
                0x080047b8       0x38 C:\Users\moseichuk\AppData\Local\Temp\VMBuilds\TestSerial\Arduino_STM32_genericSTM32F103Z\Release\core.a(usb_serial.cpp.o)
 .text._ZL6rxHookjPv
                0x080047f0       0xa0 C:\Users\moseichuk\AppData\Local\Temp\VMBuilds\TestSerial\Arduino_STM32_genericSTM32F103Z\Release\core.a(usb_serial.cpp.o)
 .text._ZL10wait_resetv
                0x08004890       0x10 C:\Users\moseichuk\AppData\Local\Temp\VMBuilds\TestSerial\Arduino_STM32_genericSTM32F103Z\Release\core.a(usb_serial.cpp.o)
 .text._ZN9USBSerialC2Ev
                0x080048a0       0x14 C:\Users\moseichuk\AppData\Local\Temp\VMBuilds\TestSerial\Arduino_STM32_genericSTM32F103Z\Release\core.a(usb_serial.cpp.o)
                0x080048a0                USBSerial::USBSerial()
                0x080048a0                USBSerial::USBSerial()
 .text._ZN9USBSerial5beginEv
                0x080048b4       0x3c C:\Users\moseichuk\AppData\Local\Temp\VMBuilds\TestSerial\Arduino_STM32_genericSTM32F103Z\Release\core.a(usb_serial.cpp.o)
                0x080048b4                USBSerial::begin()
 .text._ZN9USBSerial5beginEm
                0x080048f0       0x10 C:\Users\moseichuk\AppData\Local\Temp\VMBuilds\TestSerial\Arduino_STM32_genericSTM32F103Z\Release\core.a(usb_serial.cpp.o)
                0x080048f0                USBSerial::begin(unsigned long)
 .text._ZN9USBSerial4readEPhm
                0x08004900       0x1c C:\Users\moseichuk\AppData\Local\Temp\VMBuilds\TestSerial\Arduino_STM32_genericSTM32F103Z\Release\core.a(usb_serial.cpp.o)
                0x08004900                USBSerial::read(unsigned char*, unsigned long)
 .text._ZN9USBSerial5flushEv
                0x0800491c       0x1c C:\Users\moseichuk\AppData\Local\Temp\VMBuilds\TestSerial\Arduino_STM32_genericSTM32F103Z\Release\core.a(usb_serial.cpp.o)
                0x0800491c                USBSerial::flush()
 .text._ZN9USBSerialcvbEv
                0x08004938       0x20 C:\Users\moseichuk\AppData\Local\Temp\VMBuilds\TestSerial\Arduino_STM32_genericSTM32F103Z\Release\core.a(usb_serial.cpp.o)
                0x08004938                USBSerial::operator bool()
 .text._ZN9USBSerial5writeEPKhm
                0x08004958       0x24 C:\Users\moseichuk\AppData\Local\Temp\VMBuilds\TestSerial\Arduino_STM32_genericSTM32F103Z\Release\core.a(usb_serial.cpp.o)
                0x08004958                USBSerial::write(unsigned char const*, unsigned long)
 .text._ZN9USBSerial5writeEh
                0x0800497c       0x18 C:\Users\moseichuk\AppData\Local\Temp\VMBuilds\TestSerial\Arduino_STM32_genericSTM32F103Z\Release\core.a(usb_serial.cpp.o)
                0x0800497c                USBSerial::write(unsigned char)
 .text._ZN9USBSerial5writeEPKc
                0x08004994       0x1a C:\Users\moseichuk\AppData\Local\Temp\VMBuilds\TestSerial\Arduino_STM32_genericSTM32F103Z\Release\core.a(usb_serial.cpp.o)
                0x08004994                USBSerial::write(char const*)
 *fill*         0x080049ae        0x2 
 .text.startup._GLOBAL__sub_I__ZN9USBSerial9_hasBegunE
                0x080049b0        0xc C:\Users\moseichuk\AppData\Local\Temp\VMBuilds\TestSerial\Arduino_STM32_genericSTM32F103Z\Release\core.a(usb_serial.cpp.o)
 .text.data_register
                0x080049bc       0x28 C:\Users\moseichuk\AppData\Local\Temp\VMBuilds\TestSerial\Arduino_STM32_genericSTM32F103Z\Release\core.a(bkp_f1.c.o)
 .text.bkp_init
                0x080049e4       0x18 C:\Users\moseichuk\AppData\Local\Temp\VMBuilds\TestSerial\Arduino_STM32_genericSTM32F103Z\Release\core.a(bkp_f1.c.o)
                0x080049e4                bkp_init
 .text.bkp_enable_writes
                0x080049fc        0xc C:\Users\moseichuk\AppData\Local\Temp\VMBuilds\TestSerial\Arduino_STM32_genericSTM32F103Z\Release\core.a(bkp_f1.c.o)
                0x080049fc                bkp_enable_writes
 .text.bkp_disable_writes
                0x08004a08        0xc C:\Users\moseichuk\AppData\Local\Temp\VMBuilds\TestSerial\Arduino_STM32_genericSTM32F103Z\Release\core.a(bkp_f1.c.o)
                0x08004a08                bkp_disable_writes
 .text.bkp_write
                0x08004a14        0xe C:\Users\moseichuk\AppData\Local\Temp\VMBuilds\TestSerial\Arduino_STM32_genericSTM32F103Z\Release\core.a(bkp_f1.c.o)
                0x08004a14                bkp_write
 .text.gpio_init
                0x08004a22       0x14 C:\Users\moseichuk\AppData\Local\Temp\VMBuilds\TestSerial\Arduino_STM32_genericSTM32F103Z\Release\core.a(gpio.c.o)
                0x08004a22                gpio_init
 .text.i2c_start_condition
                0x08004a36       0x14 C:\Users\moseichuk\AppData\Local\Temp\VMBuilds\TestSerial\Arduino_STM32_genericSTM32F103Z\Release\core.a(i2c.c.o)
 .text.i2c_stop_condition
                0x08004a4a       0x1c C:\Users\moseichuk\AppData\Local\Temp\VMBuilds\TestSerial\Arduino_STM32_genericSTM32F103Z\Release\core.a(i2c.c.o)
 *fill*         0x08004a66        0x2 
 .text._i2c_irq_handler
                0x08004a68      0x16c C:\Users\moseichuk\AppData\Local\Temp\VMBuilds\TestSerial\Arduino_STM32_genericSTM32F103Z\Release\core.a(i2c.c.o)
                0x08004a68                _i2c_irq_handler
 .text._i2c_irq_error_handler
                0x08004bd4       0x2a C:\Users\moseichuk\AppData\Local\Temp\VMBuilds\TestSerial\Arduino_STM32_genericSTM32F103Z\Release\core.a(i2c.c.o)
                0x08004bd4                _i2c_irq_error_handler
 .text.usart_tx
                0x08004bfe       0x9c C:\Users\moseichuk\AppData\Local\Temp\VMBuilds\TestSerial\Arduino_STM32_genericSTM32F103Z\Release\core.a(usart.c.o)
                0x08004bfe                usart_tx
 *fill*         0x08004c9a        0x2 
 .text          0x08004c9c       0x2c c:/users/moseichuk/appdata/local/arduino15/packages/arduino/tools/arm-none-eabi-gcc/4.8.3-2014q1/bin/../lib/gcc/arm-none-eabi/4.8.3/armv7-m\libgcc.a(_aeabi_uldivmod.o)
                0x08004c9c                __aeabi_uldivmod
 .text          0x08004cc8       0x60 c:/users/moseichuk/appdata/local/arduino15/packages/arduino/tools/arm-none-eabi-gcc/4.8.3-2014q1/bin/../lib/gcc/arm-none-eabi/4.8.3/armv7-m\libgcc.a(bpabi.o)
                0x08004cc8                __gnu_ldivmod_helper
                0x08004cf8                __gnu_uldivmod_helper
 .text          0x08004d28        0x4 c:/users/moseichuk/appdata/local/arduino15/packages/arduino/tools/arm-none-eabi-gcc/4.8.3-2014q1/bin/../lib/gcc/arm-none-eabi/4.8.3/armv7-m\libgcc.a(_dvmd_tls.o)
                0x08004d28                __aeabi_idiv0
                0x08004d28                __aeabi_ldiv0
 .text          0x08004d2c      0x2a0 c:/users/moseichuk/appdata/local/arduino15/packages/arduino/tools/arm-none-eabi-gcc/4.8.3-2014q1/bin/../lib/gcc/arm-none-eabi/4.8.3/armv7-m\libgcc.a(_divdi3.o)
                0x08004d2c                __divdi3
 .text          0x08004fcc      0x290 c:/users/moseichuk/appdata/local/arduino15/packages/arduino/tools/arm-none-eabi-gcc/4.8.3-2014q1/bin/../lib/gcc/arm-none-eabi/4.8.3/armv7-m\libgcc.a(_udivdi3.o)
                0x08004fcc                __udivdi3
 .text.exit     0x0800525c       0x20 c:/users/moseichuk/appdata/local/arduino15/packages/arduino/tools/arm-none-eabi-gcc/4.8.3-2014q1/bin/../lib/gcc/arm-none-eabi/4.8.3/../../../../arm-none-eabi/lib/armv7-m\libc.a(lib_a-exit.o)
                0x0800525c                exit
 .text.__libc_init_array
                0x0800527c       0x50 c:/users/moseichuk/appdata/local/arduino15/packages/arduino/tools/arm-none-eabi-gcc/4.8.3-2014q1/bin/../lib/gcc/arm-none-eabi/4.8.3/../../../../arm-none-eabi/lib/armv7-m\libc.a(lib_a-init.o)
                0x0800527c                __libc_init_array
 .text.strlen   0x080052cc       0x60 c:/users/moseichuk/appdata/local/arduino15/packages/arduino/tools/arm-none-eabi-gcc/4.8.3-2014q1/bin/../lib/gcc/arm-none-eabi/4.8.3/../../../../arm-none-eabi/lib/armv7-m\libc.a(lib_a-strlen.o)
                0x080052cc                strlen
 .text.startup.register_fini
                0x0800532c       0x14 c:/users/moseichuk/appdata/local/arduino15/packages/arduino/tools/arm-none-eabi-gcc/4.8.3-2014q1/bin/../lib/gcc/arm-none-eabi/4.8.3/../../../../arm-none-eabi/lib/armv7-m\libc.a(lib_a-__call_atexit.o)
 .text.__call_exitprocs
                0x08005340       0xf0 c:/users/moseichuk/appdata/local/arduino15/packages/arduino/tools/arm-none-eabi-gcc/4.8.3-2014q1/bin/../lib/gcc/arm-none-eabi/4.8.3/../../../../arm-none-eabi/lib/armv7-m\libc.a(lib_a-__call_atexit.o)
                0x08005340                __call_exitprocs
 .text.atexit   0x08005430        0xc c:/users/moseichuk/appdata/local/arduino15/packages/arduino/tools/arm-none-eabi-gcc/4.8.3-2014q1/bin/../lib/gcc/arm-none-eabi/4.8.3/../../../../arm-none-eabi/lib/armv7-m\libc.a(lib_a-atexit.o)
                0x08005430                atexit
 .text.__libc_fini_array
                0x0800543c       0x30 c:/users/moseichuk/appdata/local/arduino15/packages/arduino/tools/arm-none-eabi-gcc/4.8.3-2014q1/bin/../lib/gcc/arm-none-eabi/4.8.3/../../../../arm-none-eabi/lib/armv7-m\libc.a(lib_a-fini.o)
                0x0800543c                __libc_fini_array
 .text.__register_exitproc
                0x0800546c       0xa8 c:/users/moseichuk/appdata/local/arduino15/packages/arduino/tools/arm-none-eabi-gcc/4.8.3-2014q1/bin/../lib/gcc/arm-none-eabi/4.8.3/../../../../arm-none-eabi/lib/armv7-m\libc.a(lib_a-__atexit.o)
                0x0800546c                __register_exitproc
 *(.plt)
 *(.gnu.warning)
 *(.glue_7t)
 .glue_7t       0x00000000        0x0 linker stubs
 *(.glue_7)
 .glue_7        0x00000000        0x0 linker stubs
 *(.vfp11_veneer)
 .vfp11_veneer  0x00000000        0x0 linker stubs
 *(.ARM.extab* .gnu.linkonce.armextab.*)
 *(.gcc_except_table)
 *(.eh_frame_hdr)
 *(.eh_frame)
 .eh_frame      0x08005514        0x0 c:/users/moseichuk/appdata/local/arduino15/packages/arduino/tools/arm-none-eabi-gcc/4.8.3-2014q1/bin/../lib/gcc/arm-none-eabi/4.8.3/armv7-m/crtbegin.o
                0x08005514                . = ALIGN (0x4)
 *(.init)
 .init          0x08005514        0x4 c:/users/moseichuk/appdata/local/arduino15/packages/arduino/tools/arm-none-eabi-gcc/4.8.3-2014q1/bin/../lib/gcc/arm-none-eabi/4.8.3/armv7-m/crti.o
                0x08005514                _init
 .init          0x08005518        0x8 c:/users/moseichuk/appdata/local/arduino15/packages/arduino/tools/arm-none-eabi-gcc/4.8.3-2014q1/bin/../lib/gcc/arm-none-eabi/4.8.3/armv7-m/crtn.o
                0x08005520                . = ALIGN (0x4)
                0x08005520                __preinit_array_start = .
 *(.preinit_array)
                0x08005520                __preinit_array_end = .
                0x08005520                . = ALIGN (0x4)
                0x08005520                __init_array_start = .
 *(SORT(.init_array.*))
 .init_array.00000
                0x08005520        0x4 c:/users/moseichuk/appdata/local/arduino15/packages/arduino/tools/arm-none-eabi-gcc/4.8.3-2014q1/bin/../lib/gcc/arm-none-eabi/4.8.3/../../../../arm-none-eabi/lib/armv7-m\libc.a(lib_a-__call_atexit.o)
 .init_array.00101
                0x08005524        0x4 C:\Users\moseichuk\AppData\Local\Temp\VMBuilds\TestSerial\Arduino_STM32_genericSTM32F103Z\Release\core.a(main.cpp.o)
 *(.init_array)
 .init_array    0x08005528        0x4 c:/users/moseichuk/appdata/local/arduino15/packages/arduino/tools/arm-none-eabi-gcc/4.8.3-2014q1/bin/../lib/gcc/arm-none-eabi/4.8.3/armv7-m/crtbegin.o
 .init_array    0x0800552c        0x4 C:\Users\moseichuk\AppData\Local\Temp\VMBuilds\TestSerial\Arduino_STM32_genericSTM32F103Z\Release\variant\board.cpp.o
 .init_array    0x08005530        0x4 C:\Users\moseichuk\AppData\Local\Temp\VMBuilds\TestSerial\Arduino_STM32_genericSTM32F103Z\Release\core.a(usb_serial.cpp.o)
                0x08005534                __init_array_end = .
                0x08005534                . = ALIGN (0x4)
 *crtbegin.o(.ctors)
 *(EXCLUDE_FILE(*crtend.o) .ctors)
 *(SORT(.ctors.*))
 *crtend.o(.ctors)
                0x08005534                . = ALIGN (0x4)
 *(.fini)
 .fini          0x08005534        0x4 c:/users/moseichuk/appdata/local/arduino15/packages/arduino/tools/arm-none-eabi-gcc/4.8.3-2014q1/bin/../lib/gcc/arm-none-eabi/4.8.3/armv7-m/crti.o
                0x08005534                _fini
 .fini          0x08005538        0x8 c:/users/moseichuk/appdata/local/arduino15/packages/arduino/tools/arm-none-eabi-gcc/4.8.3-2014q1/bin/../lib/gcc/arm-none-eabi/4.8.3/armv7-m/crtn.o
                0x08005540                . = ALIGN (0x4)
                0x08005540                __fini_array_start = .
 *(.fini_array)
 .fini_array    0x08005540        0x4 c:/users/moseichuk/appdata/local/arduino15/packages/arduino/tools/arm-none-eabi-gcc/4.8.3-2014q1/bin/../lib/gcc/arm-none-eabi/4.8.3/armv7-m/crtbegin.o
 *(SORT(.fini_array.*))
                0x08005544                __fini_array_end = .
 *crtbegin.o(.dtors)
 *(EXCLUDE_FILE(*crtend.o) .dtors)
 *(SORT(.dtors.*))
 *crtend.o(.dtors)

.v4_bx          0x08005544        0x0
 .v4_bx         0x00000000        0x0 linker stubs

.iplt           0x08005544        0x0
 .iplt          0x00000000        0x0 c:/users/moseichuk/appdata/local/arduino15/packages/arduino/tools/arm-none-eabi-gcc/4.8.3-2014q1/bin/../lib/gcc/arm-none-eabi/4.8.3/armv7-m/crtbegin.o

.text.align     0x08005544        0x4
                0x08005548                . = ALIGN (0x8)
 *fill*         0x08005544        0x4 
                0x08005548                __text_end__ = .
                0x08005548                __exidx_start = .

.ARM.exidx      0x08005548        0x8
 *(.ARM.exidx* .gnu.linkonce.armexidx.*)
 .ARM.exidx     0x08005548        0x8 C:\Users\moseichuk\AppData\Local\Temp\VMBuilds\TestSerial\Arduino_STM32_genericSTM32F103Z\Release\variant\start.S.o
 .ARM.exidx     0x08005550        0x0 c:/users/moseichuk/appdata/local/arduino15/packages/arduino/tools/arm-none-eabi-gcc/4.8.3-2014q1/bin/../lib/gcc/arm-none-eabi/4.8.3/armv7-m\libgcc.a(_divdi3.o)
                                  0x8 (size before relaxing)
 .ARM.exidx     0x08005550        0x0 c:/users/moseichuk/appdata/local/arduino15/packages/arduino/tools/arm-none-eabi-gcc/4.8.3-2014q1/bin/../lib/gcc/arm-none-eabi/4.8.3/armv7-m\libgcc.a(_udivdi3.o)
                                  0x8 (size before relaxing)
                0x08005550                __exidx_end = .

.data           0x20000000      0xa68 load address 0x08005550
                0x20000000                __data_start__ = .
                0x20000000        0x4 LONG 0x0
                0x20000008                . = ALIGN (0x8)
 *fill*         0x20000004        0x4 
 *(.got.plt)
 *(.got)
 *(.data .data.* .gnu.linkonce.d.*)
 .data.thisByte
                0x20000008        0x4 C:\Users\moseichuk\AppData\Local\Temp\VMBuilds\TestSerial\Arduino_STM32_genericSTM32F103Z\Release\TestSerial.cpp.o
                0x20000008                thisByte
 .data._ZN6wirish4privL8pll_dataE
                0x2000000c        0x4 C:\Users\moseichuk\AppData\Local\Temp\VMBuilds\TestSerial\Arduino_STM32_genericSTM32F103Z\Release\variant\boards_setup.cpp.o
 .data._ZN6wirish4priv9w_adc_smpE
                0x20000010        0x1 C:\Users\moseichuk\AppData\Local\Temp\VMBuilds\TestSerial\Arduino_STM32_genericSTM32F103Z\Release\variant\boards_setup.cpp.o
                0x20000010                wirish::priv::w_adc_smp
 *fill*         0x20000011        0x1 
 .data._ZN6wirish4priv9w_adc_preE
                0x20000012        0x2 C:\Users\moseichuk\AppData\Local\Temp\VMBuilds\TestSerial\Arduino_STM32_genericSTM32F103Z\Release\variant\boards_setup.cpp.o
                0x20000012                wirish::priv::w_adc_pre
 .data._ZN6wirish4priv15w_board_pll_cfgE
                0x20000014        0x8 C:\Users\moseichuk\AppData\Local\Temp\VMBuilds\TestSerial\Arduino_STM32_genericSTM32F103Z\Release\variant\boards_setup.cpp.o
                0x20000014                wirish::priv::w_board_pll_cfg
 .data.adc2     0x2000001c        0x8 C:\Users\moseichuk\AppData\Local\Temp\VMBuilds\TestSerial\Arduino_STM32_genericSTM32F103Z\Release\core.a(adc_f1.c.o)
                0x2000001c                adc2
 .data.adc3     0x20000024       0x18 C:\Users\moseichuk\AppData\Local\Temp\VMBuilds\TestSerial\Arduino_STM32_genericSTM32F103Z\Release\core.a(adc_f1.c.o)
                0x20000024                adc3
 .data.adc1     0x2000003c       0x18 C:\Users\moseichuk\AppData\Local\Temp\VMBuilds\TestSerial\Arduino_STM32_genericSTM32F103Z\Release\core.a(adc_f1.c.o)
                0x2000003c                adc1
 .data.ADC2     0x20000054        0x4 C:\Users\moseichuk\AppData\Local\Temp\VMBuilds\TestSerial\Arduino_STM32_genericSTM32F103Z\Release\core.a(adc_f1.c.o)
                0x20000054                ADC2
 .data.ADC1     0x20000058        0x4 C:\Users\moseichuk\AppData\Local\Temp\VMBuilds\TestSerial\Arduino_STM32_genericSTM32F103Z\Release\core.a(adc_f1.c.o)
                0x20000058                ADC1
 .data.ADC3     0x2000005c        0x4 C:\Users\moseichuk\AppData\Local\Temp\VMBuilds\TestSerial\Arduino_STM32_genericSTM32F103Z\Release\core.a(adc_f1.c.o)
                0x2000005c                ADC3
 .data.dma1     0x20000060       0x40 C:\Users\moseichuk\AppData\Local\Temp\VMBuilds\TestSerial\Arduino_STM32_genericSTM32F103Z\Release\core.a(dma_f1.c.o)
 .data.dma2     0x200000a0       0x30 C:\Users\moseichuk\AppData\Local\Temp\VMBuilds\TestSerial\Arduino_STM32_genericSTM32F103Z\Release\core.a(dma_f1.c.o)
 .data.DMA1     0x200000d0        0x4 C:\Users\moseichuk\AppData\Local\Temp\VMBuilds\TestSerial\Arduino_STM32_genericSTM32F103Z\Release\core.a(dma_f1.c.o)
                0x200000d0                DMA1
 .data.DMA2     0x200000d4        0x4 C:\Users\moseichuk\AppData\Local\Temp\VMBuilds\TestSerial\Arduino_STM32_genericSTM32F103Z\Release\core.a(dma_f1.c.o)
                0x200000d4                DMA2
 .data.gpioa    0x200000d8        0x8 C:\Users\moseichuk\AppData\Local\Temp\VMBuilds\TestSerial\Arduino_STM32_genericSTM32F103Z\Release\core.a(gpio_f1.c.o)
                0x200000d8                gpioa
 .data.gpiob    0x200000e0        0x8 C:\Users\moseichuk\AppData\Local\Temp\VMBuilds\TestSerial\Arduino_STM32_genericSTM32F103Z\Release\core.a(gpio_f1.c.o)
                0x200000e0                gpiob
 .data.gpioc    0x200000e8        0x8 C:\Users\moseichuk\AppData\Local\Temp\VMBuilds\TestSerial\Arduino_STM32_genericSTM32F103Z\Release\core.a(gpio_f1.c.o)
                0x200000e8                gpioc
 .data.gpiod    0x200000f0        0x8 C:\Users\moseichuk\AppData\Local\Temp\VMBuilds\TestSerial\Arduino_STM32_genericSTM32F103Z\Release\core.a(gpio_f1.c.o)
                0x200000f0                gpiod
 .data.gpioe    0x200000f8        0x8 C:\Users\moseichuk\AppData\Local\Temp\VMBuilds\TestSerial\Arduino_STM32_genericSTM32F103Z\Release\core.a(gpio_f1.c.o)
                0x200000f8                gpioe
 .data.gpiof    0x20000100        0x8 C:\Users\moseichuk\AppData\Local\Temp\VMBuilds\TestSerial\Arduino_STM32_genericSTM32F103Z\Release\core.a(gpio_f1.c.o)
                0x20000100                gpiof
 .data.gpiog    0x20000108        0x8 C:\Users\moseichuk\AppData\Local\Temp\VMBuilds\TestSerial\Arduino_STM32_genericSTM32F103Z\Release\core.a(gpio_f1.c.o)
                0x20000108                gpiog
 .data.i2c1     0x20000110       0x24 C:\Users\moseichuk\AppData\Local\Temp\VMBuilds\TestSerial\Arduino_STM32_genericSTM32F103Z\Release\core.a(i2c_f1.c.o)
 .data.i2c2     0x20000134       0x24 C:\Users\moseichuk\AppData\Local\Temp\VMBuilds\TestSerial\Arduino_STM32_genericSTM32F103Z\Release\core.a(i2c_f1.c.o)
 .data.enable_regs.4411
                0x20000158        0xc C:\Users\moseichuk\AppData\Local\Temp\VMBuilds\TestSerial\Arduino_STM32_genericSTM32F103Z\Release\core.a(rcc_f1.c.o)
 .data.reset_regs.4415
                0x20000164        0x8 C:\Users\moseichuk\AppData\Local\Temp\VMBuilds\TestSerial\Arduino_STM32_genericSTM32F103Z\Release\core.a(rcc_f1.c.o)
 .data.enable_regs.4424
                0x2000016c        0xc C:\Users\moseichuk\AppData\Local\Temp\VMBuilds\TestSerial\Arduino_STM32_genericSTM32F103Z\Release\core.a(rcc_f1.c.o)
 .data.timer3   0x20000178       0x24 C:\Users\moseichuk\AppData\Local\Temp\VMBuilds\TestSerial\Arduino_STM32_genericSTM32F103Z\Release\core.a(timer.c.o)
                0x20000178                timer3
 .data.timer4   0x2000019c       0x24 C:\Users\moseichuk\AppData\Local\Temp\VMBuilds\TestSerial\Arduino_STM32_genericSTM32F103Z\Release\core.a(timer.c.o)
                0x2000019c                timer4
 .data.timer5   0x200001c0       0x24 C:\Users\moseichuk\AppData\Local\Temp\VMBuilds\TestSerial\Arduino_STM32_genericSTM32F103Z\Release\core.a(timer.c.o)
                0x200001c0                timer5
 .data.timer6   0x200001e4        0xc C:\Users\moseichuk\AppData\Local\Temp\VMBuilds\TestSerial\Arduino_STM32_genericSTM32F103Z\Release\core.a(timer.c.o)
                0x200001e4                timer6
 .data.timer7   0x200001f0        0xc C:\Users\moseichuk\AppData\Local\Temp\VMBuilds\TestSerial\Arduino_STM32_genericSTM32F103Z\Release\core.a(timer.c.o)
                0x200001f0                timer7
 .data.timer8   0x200001fc       0x28 C:\Users\moseichuk\AppData\Local\Temp\VMBuilds\TestSerial\Arduino_STM32_genericSTM32F103Z\Release\core.a(timer.c.o)
                0x200001fc                timer8
 .data.timer1   0x20000224       0x28 C:\Users\moseichuk\AppData\Local\Temp\VMBuilds\TestSerial\Arduino_STM32_genericSTM32F103Z\Release\core.a(timer.c.o)
                0x20000224                timer1
 .data.timer2   0x2000024c       0x24 C:\Users\moseichuk\AppData\Local\Temp\VMBuilds\TestSerial\Arduino_STM32_genericSTM32F103Z\Release\core.a(timer.c.o)
                0x2000024c                timer2
 .data.USART1   0x20000270        0x4 C:\Users\moseichuk\AppData\Local\Temp\VMBuilds\TestSerial\Arduino_STM32_genericSTM32F103Z\Release\core.a(usart_f1.c.o)
                0x20000270                USART1
 .data.USART2   0x20000274        0x4 C:\Users\moseichuk\AppData\Local\Temp\VMBuilds\TestSerial\Arduino_STM32_genericSTM32F103Z\Release\core.a(usart_f1.c.o)
                0x20000274                USART2
 .data.USART3   0x20000278        0x4 C:\Users\moseichuk\AppData\Local\Temp\VMBuilds\TestSerial\Arduino_STM32_genericSTM32F103Z\Release\core.a(usart_f1.c.o)
                0x20000278                USART3
 .data.usart3   0x2000027c       0x94 C:\Users\moseichuk\AppData\Local\Temp\VMBuilds\TestSerial\Arduino_STM32_genericSTM32F103Z\Release\core.a(usart_f1.c.o)
 .data.usart1   0x20000310       0x94 C:\Users\moseichuk\AppData\Local\Temp\VMBuilds\TestSerial\Arduino_STM32_genericSTM32F103Z\Release\core.a(usart_f1.c.o)
 .data.usart2   0x200003a4       0x94 C:\Users\moseichuk\AppData\Local\Temp\VMBuilds\TestSerial\Arduino_STM32_genericSTM32F103Z\Release\core.a(usart_f1.c.o)
 .data.uart4    0x20000438       0x94 C:\Users\moseichuk\AppData\Local\Temp\VMBuilds\TestSerial\Arduino_STM32_genericSTM32F103Z\Release\core.a(usart_f1.c.o)
 .data.uart5    0x200004cc       0x94 C:\Users\moseichuk\AppData\Local\Temp\VMBuilds\TestSerial\Arduino_STM32_genericSTM32F103Z\Release\core.a(usart_f1.c.o)
 .data.UART4    0x20000560        0x4 C:\Users\moseichuk\AppData\Local\Temp\VMBuilds\TestSerial\Arduino_STM32_genericSTM32F103Z\Release\core.a(usart_f1.c.o)
                0x20000560                UART4
 .data.UART5    0x20000564        0x4 C:\Users\moseichuk\AppData\Local\Temp\VMBuilds\TestSerial\Arduino_STM32_genericSTM32F103Z\Release\core.a(usart_f1.c.o)
                0x20000564                UART5
 .data.USBLIB   0x20000568        0x4 C:\Users\moseichuk\AppData\Local\Temp\VMBuilds\TestSerial\Arduino_STM32_genericSTM32F103Z\Release\core.a(usb.c.o)
                0x20000568                USBLIB
 .data.usblib   0x2000056c       0x10 C:\Users\moseichuk\AppData\Local\Temp\VMBuilds\TestSerial\Arduino_STM32_genericSTM32F103Z\Release\core.a(usb.c.o)
 .data.Config_Descriptor
                0x2000057c        0x8 C:\Users\moseichuk\AppData\Local\Temp\VMBuilds\TestSerial\Arduino_STM32_genericSTM32F103Z\Release\core.a(usb_cdcacm.c.o)
 .data.Device_Property
                0x20000584       0x30 C:\Users\moseichuk\AppData\Local\Temp\VMBuilds\TestSerial\Arduino_STM32_genericSTM32F103Z\Release\core.a(usb_cdcacm.c.o)
                0x20000584                Device_Property
 .data.ep_int_in
                0x200005b4       0x1c C:\Users\moseichuk\AppData\Local\Temp\VMBuilds\TestSerial\Arduino_STM32_genericSTM32F103Z\Release\core.a(usb_cdcacm.c.o)
 .data.String_Descriptor
                0x200005d0       0x18 C:\Users\moseichuk\AppData\Local\Temp\VMBuilds\TestSerial\Arduino_STM32_genericSTM32F103Z\Release\core.a(usb_cdcacm.c.o)
 .data.ep_int_out
                0x200005e8       0x1c C:\Users\moseichuk\AppData\Local\Temp\VMBuilds\TestSerial\Arduino_STM32_genericSTM32F103Z\Release\core.a(usb_cdcacm.c.o)
 .data.line_coding
                0x20000604        0x7 C:\Users\moseichuk\AppData\Local\Temp\VMBuilds\TestSerial\Arduino_STM32_genericSTM32F103Z\Release\core.a(usb_cdcacm.c.o)
 *fill*         0x2000060b        0x1 
 .data.User_Standard_Requests
                0x2000060c       0x24 C:\Users\moseichuk\AppData\Local\Temp\VMBuilds\TestSerial\Arduino_STM32_genericSTM32F103Z\Release\core.a(usb_cdcacm.c.o)
                0x2000060c                User_Standard_Requests
 .data.Device_Descriptor
                0x20000630        0x8 C:\Users\moseichuk\AppData\Local\Temp\VMBuilds\TestSerial\Arduino_STM32_genericSTM32F103Z\Release\core.a(usb_cdcacm.c.o)
 .data.Device_Table
                0x20000638        0x2 C:\Users\moseichuk\AppData\Local\Temp\VMBuilds\TestSerial\Arduino_STM32_genericSTM32F103Z\Release\core.a(usb_cdcacm.c.o)
                0x20000638                Device_Table
 *fill*         0x2000063a        0x6 
 .data.impure_data
                0x20000640      0x428 c:/users/moseichuk/appdata/local/arduino15/packages/arduino/tools/arm-none-eabi-gcc/4.8.3-2014q1/bin/../lib/gcc/arm-none-eabi/4.8.3/../../../../arm-none-eabi/lib/armv7-m\libc.a(lib_a-impure.o)
                0x20000a68                . = ALIGN (0x8)
                0x20000a68                __data_end__ = .

.jcr            0x20000a68        0x0 load address 0x08005fb8
 .jcr           0x20000a68        0x0 c:/users/moseichuk/appdata/local/arduino15/packages/arduino/tools/arm-none-eabi-gcc/4.8.3-2014q1/bin/../lib/gcc/arm-none-eabi/4.8.3/armv7-m/crtbegin.o

.igot.plt       0x20000a68        0x0 load address 0x08005fb8
 .igot.plt      0x00000000        0x0 c:/users/moseichuk/appdata/local/arduino15/packages/arduino/tools/arm-none-eabi-gcc/4.8.3-2014q1/bin/../lib/gcc/arm-none-eabi/4.8.3/armv7-m/crtbegin.o

.rodata         0x08005fb8      0x88c
 *(.rodata .rodata.* .gnu.linkonce.r.*)
 .rodata.str1.1
                0x08005fb8       0x3c C:\Users\moseichuk\AppData\Local\Temp\VMBuilds\TestSerial\Arduino_STM32_genericSTM32F103Z\Release\TestSerial.cpp.o
 .rodata.PIN_MAP
                0x08005ff4      0x700 C:\Users\moseichuk\AppData\Local\Temp\VMBuilds\TestSerial\Arduino_STM32_genericSTM32F103Z\Release\variant\board.cpp.o
                0x08005ff4                PIN_MAP
 .rodata.GPIOB  0x080066f4        0x4 C:\Users\moseichuk\AppData\Local\Temp\VMBuilds\TestSerial\Arduino_STM32_genericSTM32F103Z\Release\core.a(gpio_f1.c.o)
                0x080066f4                GPIOB
 .rodata.GPIOC  0x080066f8        0x4 C:\Users\moseichuk\AppData\Local\Temp\VMBuilds\TestSerial\Arduino_STM32_genericSTM32F103Z\Release\core.a(gpio_f1.c.o)
                0x080066f8                GPIOC
 .rodata.rcc_dev_table
                0x080066fc       0x5c C:\Users\moseichuk\AppData\Local\Temp\VMBuilds\TestSerial\Arduino_STM32_genericSTM32F103Z\Release\core.a(rcc_f1.c.o)
                0x080066fc                rcc_dev_table
 .rodata.masks.4420
                0x08006758       0x14 C:\Users\moseichuk\AppData\Local\Temp\VMBuilds\TestSerial\Arduino_STM32_genericSTM32F103Z\Release\core.a(rcc_f1.c.o)
 .rodata.usbVcomDescriptor_iProduct
                0x0800676c        0xc C:\Users\moseichuk\AppData\Local\Temp\VMBuilds\TestSerial\Arduino_STM32_genericSTM32F103Z\Release\core.a(usb_cdcacm.c.o)
 .rodata.usbVcomDescriptor_iManufacturer
                0x08006778       0x12 C:\Users\moseichuk\AppData\Local\Temp\VMBuilds\TestSerial\Arduino_STM32_genericSTM32F103Z\Release\core.a(usb_cdcacm.c.o)
 .rodata.usbVcomDescriptor_Device
                0x0800678a       0x12 C:\Users\moseichuk\AppData\Local\Temp\VMBuilds\TestSerial\Arduino_STM32_genericSTM32F103Z\Release\core.a(usb_cdcacm.c.o)
 .rodata.usbVcomDescriptor_Config
                0x0800679c       0x43 C:\Users\moseichuk\AppData\Local\Temp\VMBuilds\TestSerial\Arduino_STM32_genericSTM32F103Z\Release\core.a(usb_cdcacm.c.o)
 .rodata.usbVcomDescriptor_LangID
                0x080067df        0x4 C:\Users\moseichuk\AppData\Local\Temp\VMBuilds\TestSerial\Arduino_STM32_genericSTM32F103Z\Release\core.a(usb_cdcacm.c.o)
 *fill*         0x080067e3        0x5 
 .rodata._ZTV14HardwareSerial
                0x080067e8       0x28 C:\Users\moseichuk\AppData\Local\Temp\VMBuilds\TestSerial\Arduino_STM32_genericSTM32F103Z\Release\core.a(HardwareSerial.cpp.o)
                0x080067e8                vtable for HardwareSerial
 .rodata._ZTV9USBSerial
                0x08006810       0x28 C:\Users\moseichuk\AppData\Local\Temp\VMBuilds\TestSerial\Arduino_STM32_genericSTM32F103Z\Release\core.a(usb_serial.cpp.o)
                0x08006810                vtable for USBSerial
 .rodata.str1.4
                0x08006838        0x4 c:/users/moseichuk/appdata/local/arduino15/packages/arduino/tools/arm-none-eabi-gcc/4.8.3-2014q1/bin/../lib/gcc/arm-none-eabi/4.8.3/../../../../arm-none-eabi/lib/armv7-m\libc.a(lib_a-impure.o)
 .rodata._global_impure_ptr
                0x0800683c        0x4 c:/users/moseichuk/appdata/local/arduino15/packages/arduino/tools/arm-none-eabi-gcc/4.8.3-2014q1/bin/../lib/gcc/arm-none-eabi/4.8.3/../../../../arm-none-eabi/lib/armv7-m\libc.a(lib_a-impure.o)
                0x0800683c                _global_impure_ptr
 *(.USER_FLASH)
                0x08006840                . = ALIGN (0x4)
                0x08006840                _lm_rom_img_cfgp = .
                0x08006840        0x4 LONG 0x8005550 LOADADDR (.data)
                0x20000e70                _lm_heap_start = DEFINED (_lm_heap_start)?_lm_heap_start:_end
                0x20010000                _lm_heap_end = DEFINED (_lm_heap_end)?_lm_heap_end:__msp_init

.rel.dyn        0x08006844        0x0
 .rel.iplt      0x00000000        0x0 c:/users/moseichuk/appdata/local/arduino15/packages/arduino/tools/arm-none-eabi-gcc/4.8.3-2014q1/bin/../lib/gcc/arm-none-eabi/4.8.3/armv7-m/crtbegin.o

.bss            0x20000a68      0x408
                0x20000a68                . = ALIGN (0x8)
                0x20000a68                __bss_start__ = .
 *(.bss .bss.* .gnu.linkonce.b.*)
 .bss           0x20000a68       0x1c c:/users/moseichuk/appdata/local/arduino15/packages/arduino/tools/arm-none-eabi-gcc/4.8.3-2014q1/bin/../lib/gcc/arm-none-eabi/4.8.3/armv7-m/crtbegin.o
 .bss.Serial1   0x20000a84       0x18 C:\Users\moseichuk\AppData\Local\Temp\VMBuilds\TestSerial\Arduino_STM32_genericSTM32F103Z\Release\variant\board.cpp.o
                0x20000a84                Serial1
 .bss.Serial2   0x20000a9c       0x18 C:\Users\moseichuk\AppData\Local\Temp\VMBuilds\TestSerial\Arduino_STM32_genericSTM32F103Z\Release\variant\board.cpp.o
                0x20000a9c                Serial2
 .bss.Serial3   0x20000ab4       0x18 C:\Users\moseichuk\AppData\Local\Temp\VMBuilds\TestSerial\Arduino_STM32_genericSTM32F103Z\Release\variant\board.cpp.o
                0x20000ab4                Serial3
 .bss.Serial4   0x20000acc       0x18 C:\Users\moseichuk\AppData\Local\Temp\VMBuilds\TestSerial\Arduino_STM32_genericSTM32F103Z\Release\variant\board.cpp.o
                0x20000acc                Serial4
 .bss.Serial5   0x20000ae4       0x18 C:\Users\moseichuk\AppData\Local\Temp\VMBuilds\TestSerial\Arduino_STM32_genericSTM32F103Z\Release\variant\board.cpp.o
                0x20000ae4                Serial5
 .bss.exti_channels
                0x20000afc       0x80 C:\Users\moseichuk\AppData\Local\Temp\VMBuilds\TestSerial\Arduino_STM32_genericSTM32F103Z\Release\core.a(exti.c.o)
 .bss.systick_user_callback
                0x20000b7c        0x4 C:\Users\moseichuk\AppData\Local\Temp\VMBuilds\TestSerial\Arduino_STM32_genericSTM32F103Z\Release\core.a(systick.c.o)
 .bss.usart1_wb
                0x20000b80        0xc C:\Users\moseichuk\AppData\Local\Temp\VMBuilds\TestSerial\Arduino_STM32_genericSTM32F103Z\Release\core.a(usart_f1.c.o)
 .bss.usart1_rb
                0x20000b8c        0xc C:\Users\moseichuk\AppData\Local\Temp\VMBuilds\TestSerial\Arduino_STM32_genericSTM32F103Z\Release\core.a(usart_f1.c.o)
 .bss.usart2_rb
                0x20000b98        0xc C:\Users\moseichuk\AppData\Local\Temp\VMBuilds\TestSerial\Arduino_STM32_genericSTM32F103Z\Release\core.a(usart_f1.c.o)
 .bss.usart3_rb
                0x20000ba4        0xc C:\Users\moseichuk\AppData\Local\Temp\VMBuilds\TestSerial\Arduino_STM32_genericSTM32F103Z\Release\core.a(usart_f1.c.o)
 .bss.uart4_rb  0x20000bb0        0xc C:\Users\moseichuk\AppData\Local\Temp\VMBuilds\TestSerial\Arduino_STM32_genericSTM32F103Z\Release\core.a(usart_f1.c.o)
 .bss.uart5_rb  0x20000bbc        0xc C:\Users\moseichuk\AppData\Local\Temp\VMBuilds\TestSerial\Arduino_STM32_genericSTM32F103Z\Release\core.a(usart_f1.c.o)
 .bss.usart2_wb
                0x20000bc8        0xc C:\Users\moseichuk\AppData\Local\Temp\VMBuilds\TestSerial\Arduino_STM32_genericSTM32F103Z\Release\core.a(usart_f1.c.o)
 .bss.uart4_wb  0x20000bd4        0xc C:\Users\moseichuk\AppData\Local\Temp\VMBuilds\TestSerial\Arduino_STM32_genericSTM32F103Z\Release\core.a(usart_f1.c.o)
 .bss.usart3_wb
                0x20000be0        0xc C:\Users\moseichuk\AppData\Local\Temp\VMBuilds\TestSerial\Arduino_STM32_genericSTM32F103Z\Release\core.a(usart_f1.c.o)
 .bss.uart5_wb  0x20000bec        0xc C:\Users\moseichuk\AppData\Local\Temp\VMBuilds\TestSerial\Arduino_STM32_genericSTM32F103Z\Release\core.a(usart_f1.c.o)
 .bss.line_dtr_rts
                0x20000bf8        0x1 C:\Users\moseichuk\AppData\Local\Temp\VMBuilds\TestSerial\Arduino_STM32_genericSTM32F103Z\Release\core.a(usb_cdcacm.c.o)
 .bss.vcomBufferTx
                0x20000bf9      0x100 C:\Users\moseichuk\AppData\Local\Temp\VMBuilds\TestSerial\Arduino_STM32_genericSTM32F103Z\Release\core.a(usb_cdcacm.c.o)
 *fill*         0x20000cf9        0x3 
 .bss.tx_head   0x20000cfc        0x4 C:\Users\moseichuk\AppData\Local\Temp\VMBuilds\TestSerial\Arduino_STM32_genericSTM32F103Z\Release\core.a(usb_cdcacm.c.o)
 .bss.rx_hook   0x20000d00        0x4 C:\Users\moseichuk\AppData\Local\Temp\VMBuilds\TestSerial\Arduino_STM32_genericSTM32F103Z\Release\core.a(usb_cdcacm.c.o)
 .bss.vcomBufferRx
                0x20000d04      0x100 C:\Users\moseichuk\AppData\Local\Temp\VMBuilds\TestSerial\Arduino_STM32_genericSTM32F103Z\Release\core.a(usb_cdcacm.c.o)
 .bss.transmitting
                0x20000e04        0x1 C:\Users\moseichuk\AppData\Local\Temp\VMBuilds\TestSerial\Arduino_STM32_genericSTM32F103Z\Release\core.a(usb_cdcacm.c.o)
 *fill*         0x20000e05        0x3 
 .bss.rx_tail   0x20000e08        0x4 C:\Users\moseichuk\AppData\Local\Temp\VMBuilds\TestSerial\Arduino_STM32_genericSTM32F103Z\Release\core.a(usb_cdcacm.c.o)
 .bss.iface_setup_hook
                0x20000e0c        0x4 C:\Users\moseichuk\AppData\Local\Temp\VMBuilds\TestSerial\Arduino_STM32_genericSTM32F103Z\Release\core.a(usb_cdcacm.c.o)
 .bss.rx_head   0x20000e10        0x4 C:\Users\moseichuk\AppData\Local\Temp\VMBuilds\TestSerial\Arduino_STM32_genericSTM32F103Z\Release\core.a(usb_cdcacm.c.o)
 .bss.tx_tail   0x20000e14        0x4 C:\Users\moseichuk\AppData\Local\Temp\VMBuilds\TestSerial\Arduino_STM32_genericSTM32F103Z\Release\core.a(usb_cdcacm.c.o)
 .bss.Data_Mul_MaxPacketSize
                0x20000e18        0x1 C:\Users\moseichuk\AppData\Local\Temp\VMBuilds\TestSerial\Arduino_STM32_genericSTM32F103Z\Release\core.a(usb_core.c.o)
                0x20000e18                Data_Mul_MaxPacketSize
 .bss._ZN9USBSerial9_hasBegunE
                0x20000e19        0x1 C:\Users\moseichuk\AppData\Local\Temp\VMBuilds\TestSerial\Arduino_STM32_genericSTM32F103Z\Release\core.a(usb_serial.cpp.o)
                0x20000e19                USBSerial::_hasBegun
 *fill*         0x20000e1a        0x2 
 .bss.Serial    0x20000e1c       0x10 C:\Users\moseichuk\AppData\Local\Temp\VMBuilds\TestSerial\Arduino_STM32_genericSTM32F103Z\Release\core.a(usb_serial.cpp.o)
                0x20000e1c                Serial
 .bss._ZL11reset_state
                0x20000e2c        0x1 C:\Users\moseichuk\AppData\Local\Temp\VMBuilds\TestSerial\Arduino_STM32_genericSTM32F103Z\Release\core.a(usb_serial.cpp.o)
 *(COMMON)
 *fill*         0x20000e2d        0x3 
 COMMON         0x20000e30        0x4 C:\Users\moseichuk\AppData\Local\Temp\VMBuilds\TestSerial\Arduino_STM32_genericSTM32F103Z\Release\core.a(systick.c.o)
                0x20000e30                systick_uptime_millis
 COMMON         0x20000e34        0x6 C:\Users\moseichuk\AppData\Local\Temp\VMBuilds\TestSerial\Arduino_STM32_genericSTM32F103Z\Release\core.a(usb.c.o)
                0x20000e34                SaveRState
                0x20000e36                SaveTState
                0x20000e38                ResumeS
 COMMON         0x20000e3a        0x2 C:\Users\moseichuk\AppData\Local\Temp\VMBuilds\TestSerial\Arduino_STM32_genericSTM32F103Z\Release\core.a(usb_core.c.o)
                0x20000e3a                StatusInfo
 COMMON         0x20000e3c       0x32 C:\Users\moseichuk\AppData\Local\Temp\VMBuilds\TestSerial\Arduino_STM32_genericSTM32F103Z\Release\core.a(usb_init.c.o)
                0x20000e3c                SaveState
                0x20000e40                pProperty
                0x20000e44                EPindex
                0x20000e48                Device_Info
                0x20000e64                pUser_Standard_Requests
                0x20000e68                pInformation
                0x20000e6c                wInterrupt_Mask
                0x20000e70                . = ALIGN (0x8)
 *fill*         0x20000e6e        0x2 
                0x20000e70                __bss_end__ = .
                0x20000e70                _end = __bss_end__

.stab
 *(.stab)

.stabstr
 *(.stabstr)

.debug
 *(.debug)

.line
 *(.line)

.debug_srcinfo
 *(.debug_srcinfo)

.debug_sfnames
 *(.debug_sfnames)

.debug_aranges  0x00000000      0xf38
 *(.debug_aranges)
 .debug_aranges
                0x00000000       0x28 C:\Users\moseichuk\AppData\Local\Temp\VMBuilds\TestSerial\Arduino_STM32_genericSTM32F103Z\Release\TestSerial.cpp.o
 .debug_aranges
                0x00000028       0x20 C:\Users\moseichuk\AppData\Local\Temp\VMBuilds\TestSerial\Arduino_STM32_genericSTM32F103Z\Release\variant\board.cpp.o
 .debug_aranges
                0x00000048       0x40 C:\Users\moseichuk\AppData\Local\Temp\VMBuilds\TestSerial\Arduino_STM32_genericSTM32F103Z\Release\variant\boards.cpp.o
 .debug_aranges
                0x00000088       0x40 C:\Users\moseichuk\AppData\Local\Temp\VMBuilds\TestSerial\Arduino_STM32_genericSTM32F103Z\Release\variant\boards_setup.cpp.o
 .debug_aranges
                0x000000c8       0x20 C:\Users\moseichuk\AppData\Local\Temp\VMBuilds\TestSerial\Arduino_STM32_genericSTM32F103Z\Release\variant\start.S.o
 .debug_aranges
                0x000000e8       0x20 C:\Users\moseichuk\AppData\Local\Temp\VMBuilds\TestSerial\Arduino_STM32_genericSTM32F103Z\Release\variant\start_c.c.o
 .debug_aranges
                0x00000108       0x88 C:\Users\moseichuk\AppData\Local\Temp\VMBuilds\TestSerial\Arduino_STM32_genericSTM32F103Z\Release\variant\syscalls.c.o
 .debug_aranges
                0x00000190       0x20 C:\Users\moseichuk\AppData\Local\Temp\VMBuilds\TestSerial\Arduino_STM32_genericSTM32F103Z\Release\core.a(exc.S.o)
 .debug_aranges
                0x000001b0       0x20 C:\Users\moseichuk\AppData\Local\Temp\VMBuilds\TestSerial\Arduino_STM32_genericSTM32F103Z\Release\core.a(isrs.S.o)
 .debug_aranges
                0x000001d0       0x38 C:\Users\moseichuk\AppData\Local\Temp\VMBuilds\TestSerial\Arduino_STM32_genericSTM32F103Z\Release\core.a(adc.c.o)
 .debug_aranges
                0x00000208       0x60 C:\Users\moseichuk\AppData\Local\Temp\VMBuilds\TestSerial\Arduino_STM32_genericSTM32F103Z\Release\core.a(adc_f1.c.o)
 .debug_aranges
                0x00000268       0xc8 C:\Users\moseichuk\AppData\Local\Temp\VMBuilds\TestSerial\Arduino_STM32_genericSTM32F103Z\Release\core.a(dma_f1.c.o)
 .debug_aranges
                0x00000330       0x70 C:\Users\moseichuk\AppData\Local\Temp\VMBuilds\TestSerial\Arduino_STM32_genericSTM32F103Z\Release\core.a(exti.c.o)
 .debug_aranges
                0x000003a0       0x20 C:\Users\moseichuk\AppData\Local\Temp\VMBuilds\TestSerial\Arduino_STM32_genericSTM32F103Z\Release\core.a(exti_f1.c.o)
 .debug_aranges
                0x000003c0       0x20 C:\Users\moseichuk\AppData\Local\Temp\VMBuilds\TestSerial\Arduino_STM32_genericSTM32F103Z\Release\core.a(flash.c.o)
 .debug_aranges
                0x000003e0       0x40 C:\Users\moseichuk\AppData\Local\Temp\VMBuilds\TestSerial\Arduino_STM32_genericSTM32F103Z\Release\core.a(gpio_f1.c.o)
 .debug_aranges
                0x00000420       0x50 C:\Users\moseichuk\AppData\Local\Temp\VMBuilds\TestSerial\Arduino_STM32_genericSTM32F103Z\Release\core.a(i2c_f1.c.o)
 .debug_aranges
                0x00000470       0x38 C:\Users\moseichuk\AppData\Local\Temp\VMBuilds\TestSerial\Arduino_STM32_genericSTM32F103Z\Release\core.a(nvic.c.o)
 .debug_aranges
                0x000004a8       0x48 C:\Users\moseichuk\AppData\Local\Temp\VMBuilds\TestSerial\Arduino_STM32_genericSTM32F103Z\Release\core.a(rcc.c.o)
 .debug_aranges
                0x000004f0       0x48 C:\Users\moseichuk\AppData\Local\Temp\VMBuilds\TestSerial\Arduino_STM32_genericSTM32F103Z\Release\core.a(rcc_f1.c.o)
 .debug_aranges
                0x00000538       0x40 C:\Users\moseichuk\AppData\Local\Temp\VMBuilds\TestSerial\Arduino_STM32_genericSTM32F103Z\Release\core.a(systick.c.o)
 .debug_aranges
                0x00000578       0xe0 C:\Users\moseichuk\AppData\Local\Temp\VMBuilds\TestSerial\Arduino_STM32_genericSTM32F103Z\Release\core.a(timer.c.o)
 .debug_aranges
                0x00000658       0x68 C:\Users\moseichuk\AppData\Local\Temp\VMBuilds\TestSerial\Arduino_STM32_genericSTM32F103Z\Release\core.a(usart_f1.c.o)
 .debug_aranges
                0x000006c0       0x20 C:\Users\moseichuk\AppData\Local\Temp\VMBuilds\TestSerial\Arduino_STM32_genericSTM32F103Z\Release\core.a(usart_private.c.o)
 .debug_aranges
                0x000006e0       0x50 C:\Users\moseichuk\AppData\Local\Temp\VMBuilds\TestSerial\Arduino_STM32_genericSTM32F103Z\Release\core.a(util.c.o)
 .debug_aranges
                0x00000730       0x38 C:\Users\moseichuk\AppData\Local\Temp\VMBuilds\TestSerial\Arduino_STM32_genericSTM32F103Z\Release\core.a(usb.c.o)
 .debug_aranges
                0x00000768      0x120 C:\Users\moseichuk\AppData\Local\Temp\VMBuilds\TestSerial\Arduino_STM32_genericSTM32F103Z\Release\core.a(usb_cdcacm.c.o)
 .debug_aranges
                0x00000888       0x20 C:\Users\moseichuk\AppData\Local\Temp\VMBuilds\TestSerial\Arduino_STM32_genericSTM32F103Z\Release\core.a(usb_reg_map.c.o)
 .debug_aranges
                0x000008a8       0x98 C:\Users\moseichuk\AppData\Local\Temp\VMBuilds\TestSerial\Arduino_STM32_genericSTM32F103Z\Release\core.a(usb_core.c.o)
 .debug_aranges
                0x00000940       0x20 C:\Users\moseichuk\AppData\Local\Temp\VMBuilds\TestSerial\Arduino_STM32_genericSTM32F103Z\Release\core.a(usb_init.c.o)
 .debug_aranges
                0x00000960       0x28 C:\Users\moseichuk\AppData\Local\Temp\VMBuilds\TestSerial\Arduino_STM32_genericSTM32F103Z\Release\core.a(usb_mem.c.o)
 .debug_aranges
                0x00000988      0x1f0 C:\Users\moseichuk\AppData\Local\Temp\VMBuilds\TestSerial\Arduino_STM32_genericSTM32F103Z\Release\core.a(usb_regs.c.o)
 .debug_aranges
                0x00000b78       0x68 C:\Users\moseichuk\AppData\Local\Temp\VMBuilds\TestSerial\Arduino_STM32_genericSTM32F103Z\Release\core.a(HardwareSerial.cpp.o)
 .debug_aranges
                0x00000be0       0x28 C:\Users\moseichuk\AppData\Local\Temp\VMBuilds\TestSerial\Arduino_STM32_genericSTM32F103Z\Release\core.a(main.cpp.o)
 .debug_aranges
                0x00000c08      0x110 C:\Users\moseichuk\AppData\Local\Temp\VMBuilds\TestSerial\Arduino_STM32_genericSTM32F103Z\Release\core.a(Print.cpp.o)
 .debug_aranges
                0x00000d18       0xc8 C:\Users\moseichuk\AppData\Local\Temp\VMBuilds\TestSerial\Arduino_STM32_genericSTM32F103Z\Release\core.a(usb_serial.cpp.o)
 .debug_aranges
                0x00000de0       0x48 C:\Users\moseichuk\AppData\Local\Temp\VMBuilds\TestSerial\Arduino_STM32_genericSTM32F103Z\Release\core.a(bkp_f1.c.o)
 .debug_aranges
                0x00000e28       0x28 C:\Users\moseichuk\AppData\Local\Temp\VMBuilds\TestSerial\Arduino_STM32_genericSTM32F103Z\Release\core.a(dma.c.o)
 .debug_aranges
                0x00000e50       0x20 C:\Users\moseichuk\AppData\Local\Temp\VMBuilds\TestSerial\Arduino_STM32_genericSTM32F103Z\Release\core.a(gpio.c.o)
 .debug_aranges
                0x00000e70       0x60 C:\Users\moseichuk\AppData\Local\Temp\VMBuilds\TestSerial\Arduino_STM32_genericSTM32F103Z\Release\core.a(i2c.c.o)
 .debug_aranges
                0x00000ed0       0x48 C:\Users\moseichuk\AppData\Local\Temp\VMBuilds\TestSerial\Arduino_STM32_genericSTM32F103Z\Release\core.a(usart.c.o)
 .debug_aranges
                0x00000f18       0x20 C:\Users\moseichuk\AppData\Local\Temp\VMBuilds\TestSerial\Arduino_STM32_genericSTM32F103Z\Release\core.a(cxxabi-compat.cpp.o)

.debug_pubnames
 *(.debug_pubnames)

.debug_info     0x00000000    0x1f41d
 *(.debug_info .gnu.linkonce.wi.*)
 .debug_info    0x00000000      0x421 C:\Users\moseichuk\AppData\Local\Temp\VMBuilds\TestSerial\Arduino_STM32_genericSTM32F103Z\Release\TestSerial.cpp.o
 .debug_info    0x00000421     0x11c4 C:\Users\moseichuk\AppData\Local\Temp\VMBuilds\TestSerial\Arduino_STM32_genericSTM32F103Z\Release\variant\board.cpp.o
 .debug_info    0x000015e5     0x142f C:\Users\moseichuk\AppData\Local\Temp\VMBuilds\TestSerial\Arduino_STM32_genericSTM32F103Z\Release\variant\boards.cpp.o
 .debug_info    0x00002a14     0x12c3 C:\Users\moseichuk\AppData\Local\Temp\VMBuilds\TestSerial\Arduino_STM32_genericSTM32F103Z\Release\variant\boards_setup.cpp.o
 .debug_info    0x00003cd7       0x9d C:\Users\moseichuk\AppData\Local\Temp\VMBuilds\TestSerial\Arduino_STM32_genericSTM32F103Z\Release\variant\start.S.o
 .debug_info    0x00003d74      0x176 C:\Users\moseichuk\AppData\Local\Temp\VMBuilds\TestSerial\Arduino_STM32_genericSTM32F103Z\Release\variant\start_c.c.o
 .debug_info    0x00003eea      0x5cd C:\Users\moseichuk\AppData\Local\Temp\VMBuilds\TestSerial\Arduino_STM32_genericSTM32F103Z\Release\variant\syscalls.c.o
 .debug_info    0x000044b7       0x8d C:\Users\moseichuk\AppData\Local\Temp\VMBuilds\TestSerial\Arduino_STM32_genericSTM32F103Z\Release\core.a(exc.S.o)
 .debug_info    0x00004544       0xa2 C:\Users\moseichuk\AppData\Local\Temp\VMBuilds\TestSerial\Arduino_STM32_genericSTM32F103Z\Release\core.a(isrs.S.o)
 .debug_info    0x000045e6      0x79a C:\Users\moseichuk\AppData\Local\Temp\VMBuilds\TestSerial\Arduino_STM32_genericSTM32F103Z\Release\core.a(adc.c.o)
 .debug_info    0x00004d80      0xeec C:\Users\moseichuk\AppData\Local\Temp\VMBuilds\TestSerial\Arduino_STM32_genericSTM32F103Z\Release\core.a(adc_f1.c.o)
 .debug_info    0x00005c6c     0x1c23 C:\Users\moseichuk\AppData\Local\Temp\VMBuilds\TestSerial\Arduino_STM32_genericSTM32F103Z\Release\core.a(dma_f1.c.o)
 .debug_info    0x0000788f      0xedd C:\Users\moseichuk\AppData\Local\Temp\VMBuilds\TestSerial\Arduino_STM32_genericSTM32F103Z\Release\core.a(exti.c.o)
 .debug_info    0x0000876c      0x213 C:\Users\moseichuk\AppData\Local\Temp\VMBuilds\TestSerial\Arduino_STM32_genericSTM32F103Z\Release\core.a(exti_f1.c.o)
 .debug_info    0x0000897f      0x128 C:\Users\moseichuk\AppData\Local\Temp\VMBuilds\TestSerial\Arduino_STM32_genericSTM32F103Z\Release\core.a(flash.c.o)
 .debug_info    0x00008aa7      0x781 C:\Users\moseichuk\AppData\Local\Temp\VMBuilds\TestSerial\Arduino_STM32_genericSTM32F103Z\Release\core.a(gpio_f1.c.o)
 .debug_info    0x00009228      0xbd5 C:\Users\moseichuk\AppData\Local\Temp\VMBuilds\TestSerial\Arduino_STM32_genericSTM32F103Z\Release\core.a(i2c_f1.c.o)
 .debug_info    0x00009dfd      0x5a2 C:\Users\moseichuk\AppData\Local\Temp\VMBuilds\TestSerial\Arduino_STM32_genericSTM32F103Z\Release\core.a(nvic.c.o)
 .debug_info    0x0000a39f      0x556 C:\Users\moseichuk\AppData\Local\Temp\VMBuilds\TestSerial\Arduino_STM32_genericSTM32F103Z\Release\core.a(rcc.c.o)
 .debug_info    0x0000a8f5      0xb64 C:\Users\moseichuk\AppData\Local\Temp\VMBuilds\TestSerial\Arduino_STM32_genericSTM32F103Z\Release\core.a(rcc_f1.c.o)
 .debug_info    0x0000b459      0x182 C:\Users\moseichuk\AppData\Local\Temp\VMBuilds\TestSerial\Arduino_STM32_genericSTM32F103Z\Release\core.a(systick.c.o)
 .debug_info    0x0000b5db     0x2111 C:\Users\moseichuk\AppData\Local\Temp\VMBuilds\TestSerial\Arduino_STM32_genericSTM32F103Z\Release\core.a(timer.c.o)
 .debug_info    0x0000d6ec      0xd78 C:\Users\moseichuk\AppData\Local\Temp\VMBuilds\TestSerial\Arduino_STM32_genericSTM32F103Z\Release\core.a(usart_f1.c.o)
 .debug_info    0x0000e464      0x595 C:\Users\moseichuk\AppData\Local\Temp\VMBuilds\TestSerial\Arduino_STM32_genericSTM32F103Z\Release\core.a(usart_private.c.o)
 .debug_info    0x0000e9f9      0xad2 C:\Users\moseichuk\AppData\Local\Temp\VMBuilds\TestSerial\Arduino_STM32_genericSTM32F103Z\Release\core.a(util.c.o)
 .debug_info    0x0000f4cb      0xd16 C:\Users\moseichuk\AppData\Local\Temp\VMBuilds\TestSerial\Arduino_STM32_genericSTM32F103Z\Release\core.a(usb.c.o)
 .debug_info    0x000101e1     0x22ae C:\Users\moseichuk\AppData\Local\Temp\VMBuilds\TestSerial\Arduino_STM32_genericSTM32F103Z\Release\core.a(usb_cdcacm.c.o)
 .debug_info    0x0001248f      0x26c C:\Users\moseichuk\AppData\Local\Temp\VMBuilds\TestSerial\Arduino_STM32_genericSTM32F103Z\Release\core.a(usb_reg_map.c.o)
 .debug_info    0x000126fb      0xddf C:\Users\moseichuk\AppData\Local\Temp\VMBuilds\TestSerial\Arduino_STM32_genericSTM32F103Z\Release\core.a(usb_core.c.o)
 .debug_info    0x000134da      0x3ed C:\Users\moseichuk\AppData\Local\Temp\VMBuilds\TestSerial\Arduino_STM32_genericSTM32F103Z\Release\core.a(usb_init.c.o)
 .debug_info    0x000138c7      0x17b C:\Users\moseichuk\AppData\Local\Temp\VMBuilds\TestSerial\Arduino_STM32_genericSTM32F103Z\Release\core.a(usb_mem.c.o)
 .debug_info    0x00013a42      0xc88 C:\Users\moseichuk\AppData\Local\Temp\VMBuilds\TestSerial\Arduino_STM32_genericSTM32F103Z\Release\core.a(usb_regs.c.o)
 .debug_info    0x000146ca     0x2a1c C:\Users\moseichuk\AppData\Local\Temp\VMBuilds\TestSerial\Arduino_STM32_genericSTM32F103Z\Release\core.a(HardwareSerial.cpp.o)
 .debug_info    0x000170e6       0x99 C:\Users\moseichuk\AppData\Local\Temp\VMBuilds\TestSerial\Arduino_STM32_genericSTM32F103Z\Release\core.a(main.cpp.o)
 .debug_info    0x0001717f     0x258c C:\Users\moseichuk\AppData\Local\Temp\VMBuilds\TestSerial\Arduino_STM32_genericSTM32F103Z\Release\core.a(Print.cpp.o)
 .debug_info    0x0001970b     0x2ae8 C:\Users\moseichuk\AppData\Local\Temp\VMBuilds\TestSerial\Arduino_STM32_genericSTM32F103Z\Release\core.a(usb_serial.cpp.o)
 .debug_info    0x0001c1f3      0x657 C:\Users\moseichuk\AppData\Local\Temp\VMBuilds\TestSerial\Arduino_STM32_genericSTM32F103Z\Release\core.a(bkp_f1.c.o)
 .debug_info    0x0001c84a      0x6f7 C:\Users\moseichuk\AppData\Local\Temp\VMBuilds\TestSerial\Arduino_STM32_genericSTM32F103Z\Release\core.a(dma.c.o)
 .debug_info    0x0001cf41      0x313 C:\Users\moseichuk\AppData\Local\Temp\VMBuilds\TestSerial\Arduino_STM32_genericSTM32F103Z\Release\core.a(gpio.c.o)
 .debug_info    0x0001d254     0x1564 C:\Users\moseichuk\AppData\Local\Temp\VMBuilds\TestSerial\Arduino_STM32_genericSTM32F103Z\Release\core.a(i2c.c.o)
 .debug_info    0x0001e7b8      0xc32 C:\Users\moseichuk\AppData\Local\Temp\VMBuilds\TestSerial\Arduino_STM32_genericSTM32F103Z\Release\core.a(usart.c.o)
 .debug_info    0x0001f3ea       0x33 C:\Users\moseichuk\AppData\Local\Temp\VMBuilds\TestSerial\Arduino_STM32_genericSTM32F103Z\Release\core.a(cxxabi-compat.cpp.o)

.debug_abbrev   0x00000000     0x5b92
 *(.debug_abbrev)
 .debug_abbrev  0x00000000      0x1b0 C:\Users\moseichuk\AppData\Local\Temp\VMBuilds\TestSerial\Arduino_STM32_genericSTM32F103Z\Release\TestSerial.cpp.o
 .debug_abbrev  0x000001b0      0x1d2 C:\Users\moseichuk\AppData\Local\Temp\VMBuilds\TestSerial\Arduino_STM32_genericSTM32F103Z\Release\variant\board.cpp.o
 .debug_abbrev  0x00000382      0x3dd C:\Users\moseichuk\AppData\Local\Temp\VMBuilds\TestSerial\Arduino_STM32_genericSTM32F103Z\Release\variant\boards.cpp.o
 .debug_abbrev  0x0000075f      0x2af C:\Users\moseichuk\AppData\Local\Temp\VMBuilds\TestSerial\Arduino_STM32_genericSTM32F103Z\Release\variant\boards_setup.cpp.o
 .debug_abbrev  0x00000a0e       0x14 C:\Users\moseichuk\AppData\Local\Temp\VMBuilds\TestSerial\Arduino_STM32_genericSTM32F103Z\Release\variant\start.S.o
 .debug_abbrev  0x00000a22      0x11f C:\Users\moseichuk\AppData\Local\Temp\VMBuilds\TestSerial\Arduino_STM32_genericSTM32F103Z\Release\variant\start_c.c.o
 .debug_abbrev  0x00000b41      0x17e C:\Users\moseichuk\AppData\Local\Temp\VMBuilds\TestSerial\Arduino_STM32_genericSTM32F103Z\Release\variant\syscalls.c.o
 .debug_abbrev  0x00000cbf       0x14 C:\Users\moseichuk\AppData\Local\Temp\VMBuilds\TestSerial\Arduino_STM32_genericSTM32F103Z\Release\core.a(exc.S.o)
 .debug_abbrev  0x00000cd3       0x14 C:\Users\moseichuk\AppData\Local\Temp\VMBuilds\TestSerial\Arduino_STM32_genericSTM32F103Z\Release\core.a(isrs.S.o)
 .debug_abbrev  0x00000ce7      0x20b C:\Users\moseichuk\AppData\Local\Temp\VMBuilds\TestSerial\Arduino_STM32_genericSTM32F103Z\Release\core.a(adc.c.o)
 .debug_abbrev  0x00000ef2      0x2e6 C:\Users\moseichuk\AppData\Local\Temp\VMBuilds\TestSerial\Arduino_STM32_genericSTM32F103Z\Release\core.a(adc_f1.c.o)
 .debug_abbrev  0x000011d8      0x3dd C:\Users\moseichuk\AppData\Local\Temp\VMBuilds\TestSerial\Arduino_STM32_genericSTM32F103Z\Release\core.a(dma_f1.c.o)
 .debug_abbrev  0x000015b5      0x2a5 C:\Users\moseichuk\AppData\Local\Temp\VMBuilds\TestSerial\Arduino_STM32_genericSTM32F103Z\Release\core.a(exti.c.o)
 .debug_abbrev  0x0000185a       0xdb C:\Users\moseichuk\AppData\Local\Temp\VMBuilds\TestSerial\Arduino_STM32_genericSTM32F103Z\Release\core.a(exti_f1.c.o)
 .debug_abbrev  0x00001935       0x9f C:\Users\moseichuk\AppData\Local\Temp\VMBuilds\TestSerial\Arduino_STM32_genericSTM32F103Z\Release\core.a(flash.c.o)
 .debug_abbrev  0x000019d4      0x191 C:\Users\moseichuk\AppData\Local\Temp\VMBuilds\TestSerial\Arduino_STM32_genericSTM32F103Z\Release\core.a(gpio_f1.c.o)
 .debug_abbrev  0x00001b65      0x202 C:\Users\moseichuk\AppData\Local\Temp\VMBuilds\TestSerial\Arduino_STM32_genericSTM32F103Z\Release\core.a(i2c_f1.c.o)
 .debug_abbrev  0x00001d67      0x1ac C:\Users\moseichuk\AppData\Local\Temp\VMBuilds\TestSerial\Arduino_STM32_genericSTM32F103Z\Release\core.a(nvic.c.o)
 .debug_abbrev  0x00001f13      0x17f C:\Users\moseichuk\AppData\Local\Temp\VMBuilds\TestSerial\Arduino_STM32_genericSTM32F103Z\Release\core.a(rcc.c.o)
 .debug_abbrev  0x00002092      0x28c C:\Users\moseichuk\AppData\Local\Temp\VMBuilds\TestSerial\Arduino_STM32_genericSTM32F103Z\Release\core.a(rcc_f1.c.o)
 .debug_abbrev  0x0000231e      0x10f C:\Users\moseichuk\AppData\Local\Temp\VMBuilds\TestSerial\Arduino_STM32_genericSTM32F103Z\Release\core.a(systick.c.o)
 .debug_abbrev  0x0000242d      0x48a C:\Users\moseichuk\AppData\Local\Temp\VMBuilds\TestSerial\Arduino_STM32_genericSTM32F103Z\Release\core.a(timer.c.o)
 .debug_abbrev  0x000028b7      0x292 C:\Users\moseichuk\AppData\Local\Temp\VMBuilds\TestSerial\Arduino_STM32_genericSTM32F103Z\Release\core.a(usart_f1.c.o)
 .debug_abbrev  0x00002b49      0x144 C:\Users\moseichuk\AppData\Local\Temp\VMBuilds\TestSerial\Arduino_STM32_genericSTM32F103Z\Release\core.a(usart_private.c.o)
 .debug_abbrev  0x00002c8d      0x2c9 C:\Users\moseichuk\AppData\Local\Temp\VMBuilds\TestSerial\Arduino_STM32_genericSTM32F103Z\Release\core.a(util.c.o)
 .debug_abbrev  0x00002f56      0x352 C:\Users\moseichuk\AppData\Local\Temp\VMBuilds\TestSerial\Arduino_STM32_genericSTM32F103Z\Release\core.a(usb.c.o)
 .debug_abbrev  0x000032a8      0x47d C:\Users\moseichuk\AppData\Local\Temp\VMBuilds\TestSerial\Arduino_STM32_genericSTM32F103Z\Release\core.a(usb_cdcacm.c.o)
 .debug_abbrev  0x00003725      0x193 C:\Users\moseichuk\AppData\Local\Temp\VMBuilds\TestSerial\Arduino_STM32_genericSTM32F103Z\Release\core.a(usb_reg_map.c.o)
 .debug_abbrev  0x000038b8      0x3a6 C:\Users\moseichuk\AppData\Local\Temp\VMBuilds\TestSerial\Arduino_STM32_genericSTM32F103Z\Release\core.a(usb_core.c.o)
 .debug_abbrev  0x00003c5e      0x101 C:\Users\moseichuk\AppData\Local\Temp\VMBuilds\TestSerial\Arduino_STM32_genericSTM32F103Z\Release\core.a(usb_init.c.o)
 .debug_abbrev  0x00003d5f       0x90 C:\Users\moseichuk\AppData\Local\Temp\VMBuilds\TestSerial\Arduino_STM32_genericSTM32F103Z\Release\core.a(usb_mem.c.o)
 .debug_abbrev  0x00003def      0x1f3 C:\Users\moseichuk\AppData\Local\Temp\VMBuilds\TestSerial\Arduino_STM32_genericSTM32F103Z\Release\core.a(usb_regs.c.o)
 .debug_abbrev  0x00003fe2      0x524 C:\Users\moseichuk\AppData\Local\Temp\VMBuilds\TestSerial\Arduino_STM32_genericSTM32F103Z\Release\core.a(HardwareSerial.cpp.o)
 .debug_abbrev  0x00004506       0x7b C:\Users\moseichuk\AppData\Local\Temp\VMBuilds\TestSerial\Arduino_STM32_genericSTM32F103Z\Release\core.a(main.cpp.o)
 .debug_abbrev  0x00004581      0x414 C:\Users\moseichuk\AppData\Local\Temp\VMBuilds\TestSerial\Arduino_STM32_genericSTM32F103Z\Release\core.a(Print.cpp.o)
 .debug_abbrev  0x00004995      0x665 C:\Users\moseichuk\AppData\Local\Temp\VMBuilds\TestSerial\Arduino_STM32_genericSTM32F103Z\Release\core.a(usb_serial.cpp.o)
 .debug_abbrev  0x00004ffa      0x1d3 C:\Users\moseichuk\AppData\Local\Temp\VMBuilds\TestSerial\Arduino_STM32_genericSTM32F103Z\Release\core.a(bkp_f1.c.o)
 .debug_abbrev  0x000051cd      0x182 C:\Users\moseichuk\AppData\Local\Temp\VMBuilds\TestSerial\Arduino_STM32_genericSTM32F103Z\Release\core.a(dma.c.o)
 .debug_abbrev  0x0000534f      0x113 C:\Users\moseichuk\AppData\Local\Temp\VMBuilds\TestSerial\Arduino_STM32_genericSTM32F103Z\Release\core.a(gpio.c.o)
 .debug_abbrev  0x00005462      0x409 C:\Users\moseichuk\AppData\Local\Temp\VMBuilds\TestSerial\Arduino_STM32_genericSTM32F103Z\Release\core.a(i2c.c.o)
 .debug_abbrev  0x0000586b      0x2ff C:\Users\moseichuk\AppData\Local\Temp\VMBuilds\TestSerial\Arduino_STM32_genericSTM32F103Z\Release\core.a(usart.c.o)
 .debug_abbrev  0x00005b6a       0x28 C:\Users\moseichuk\AppData\Local\Temp\VMBuilds\TestSerial\Arduino_STM32_genericSTM32F103Z\Release\core.a(cxxabi-compat.cpp.o)

.debug_line     0x00000000     0x8d4c
 *(.debug_line)
 .debug_line    0x00000000      0x3a0 C:\Users\moseichuk\AppData\Local\Temp\VMBuilds\TestSerial\Arduino_STM32_genericSTM32F103Z\Release\TestSerial.cpp.o
 .debug_line    0x000003a0      0x395 C:\Users\moseichuk\AppData\Local\Temp\VMBuilds\TestSerial\Arduino_STM32_genericSTM32F103Z\Release\variant\board.cpp.o
 .debug_line    0x00000735      0x43f C:\Users\moseichuk\AppData\Local\Temp\VMBuilds\TestSerial\Arduino_STM32_genericSTM32F103Z\Release\variant\boards.cpp.o
 .debug_line    0x00000b74      0x404 C:\Users\moseichuk\AppData\Local\Temp\VMBuilds\TestSerial\Arduino_STM32_genericSTM32F103Z\Release\variant\boards_setup.cpp.o
 .debug_line    0x00000f78       0x8f C:\Users\moseichuk\AppData\Local\Temp\VMBuilds\TestSerial\Arduino_STM32_genericSTM32F103Z\Release\variant\start.S.o
 .debug_line    0x00001007       0xa0 C:\Users\moseichuk\AppData\Local\Temp\VMBuilds\TestSerial\Arduino_STM32_genericSTM32F103Z\Release\variant\start_c.c.o
 .debug_line    0x000010a7      0x2ed C:\Users\moseichuk\AppData\Local\Temp\VMBuilds\TestSerial\Arduino_STM32_genericSTM32F103Z\Release\variant\syscalls.c.o
 .debug_line    0x00001394       0x92 C:\Users\moseichuk\AppData\Local\Temp\VMBuilds\TestSerial\Arduino_STM32_genericSTM32F103Z\Release\core.a(exc.S.o)
 .debug_line    0x00001426       0x8f C:\Users\moseichuk\AppData\Local\Temp\VMBuilds\TestSerial\Arduino_STM32_genericSTM32F103Z\Release\core.a(isrs.S.o)
 .debug_line    0x000014b5      0x2db C:\Users\moseichuk\AppData\Local\Temp\VMBuilds\TestSerial\Arduino_STM32_genericSTM32F103Z\Release\core.a(adc.c.o)
 .debug_line    0x00001790      0x3aa C:\Users\moseichuk\AppData\Local\Temp\VMBuilds\TestSerial\Arduino_STM32_genericSTM32F103Z\Release\core.a(adc_f1.c.o)
 .debug_line    0x00001b3a      0x69d C:\Users\moseichuk\AppData\Local\Temp\VMBuilds\TestSerial\Arduino_STM32_genericSTM32F103Z\Release\core.a(dma_f1.c.o)
 .debug_line    0x000021d7      0x3f1 C:\Users\moseichuk\AppData\Local\Temp\VMBuilds\TestSerial\Arduino_STM32_genericSTM32F103Z\Release\core.a(exti.c.o)
 .debug_line    0x000025c8      0x2b8 C:\Users\moseichuk\AppData\Local\Temp\VMBuilds\TestSerial\Arduino_STM32_genericSTM32F103Z\Release\core.a(exti_f1.c.o)
 .debug_line    0x00002880      0x25d C:\Users\moseichuk\AppData\Local\Temp\VMBuilds\TestSerial\Arduino_STM32_genericSTM32F103Z\Release\core.a(flash.c.o)
 .debug_line    0x00002add      0x2f2 C:\Users\moseichuk\AppData\Local\Temp\VMBuilds\TestSerial\Arduino_STM32_genericSTM32F103Z\Release\core.a(gpio_f1.c.o)
 .debug_line    0x00002dcf      0x3c8 C:\Users\moseichuk\AppData\Local\Temp\VMBuilds\TestSerial\Arduino_STM32_genericSTM32F103Z\Release\core.a(i2c_f1.c.o)
 .debug_line    0x00003197      0x2c5 C:\Users\moseichuk\AppData\Local\Temp\VMBuilds\TestSerial\Arduino_STM32_genericSTM32F103Z\Release\core.a(nvic.c.o)
 .debug_line    0x0000345c      0x339 C:\Users\moseichuk\AppData\Local\Temp\VMBuilds\TestSerial\Arduino_STM32_genericSTM32F103Z\Release\core.a(rcc.c.o)
 .debug_line    0x00003795      0x386 C:\Users\moseichuk\AppData\Local\Temp\VMBuilds\TestSerial\Arduino_STM32_genericSTM32F103Z\Release\core.a(rcc_f1.c.o)
 .debug_line    0x00003b1b      0x254 C:\Users\moseichuk\AppData\Local\Temp\VMBuilds\TestSerial\Arduino_STM32_genericSTM32F103Z\Release\core.a(systick.c.o)
 .debug_line    0x00003d6f      0x65f C:\Users\moseichuk\AppData\Local\Temp\VMBuilds\TestSerial\Arduino_STM32_genericSTM32F103Z\Release\core.a(timer.c.o)
 .debug_line    0x000043ce      0x440 C:\Users\moseichuk\AppData\Local\Temp\VMBuilds\TestSerial\Arduino_STM32_genericSTM32F103Z\Release\core.a(usart_f1.c.o)
 .debug_line    0x0000480e      0x299 C:\Users\moseichuk\AppData\Local\Temp\VMBuilds\TestSerial\Arduino_STM32_genericSTM32F103Z\Release\core.a(usart_private.c.o)
 .debug_line    0x00004aa7      0x361 C:\Users\moseichuk\AppData\Local\Temp\VMBuilds\TestSerial\Arduino_STM32_genericSTM32F103Z\Release\core.a(util.c.o)
 .debug_line    0x00004e08      0x487 C:\Users\moseichuk\AppData\Local\Temp\VMBuilds\TestSerial\Arduino_STM32_genericSTM32F103Z\Release\core.a(usb.c.o)
 .debug_line    0x0000528f      0x881 C:\Users\moseichuk\AppData\Local\Temp\VMBuilds\TestSerial\Arduino_STM32_genericSTM32F103Z\Release\core.a(usb_cdcacm.c.o)
 .debug_line    0x00005b10      0x28e C:\Users\moseichuk\AppData\Local\Temp\VMBuilds\TestSerial\Arduino_STM32_genericSTM32F103Z\Release\core.a(usb_reg_map.c.o)
 .debug_line    0x00005d9e      0x3e7 C:\Users\moseichuk\AppData\Local\Temp\VMBuilds\TestSerial\Arduino_STM32_genericSTM32F103Z\Release\core.a(usb_core.c.o)
 .debug_line    0x00006185       0xfc C:\Users\moseichuk\AppData\Local\Temp\VMBuilds\TestSerial\Arduino_STM32_genericSTM32F103Z\Release\core.a(usb_init.c.o)
 .debug_line    0x00006281      0x128 C:\Users\moseichuk\AppData\Local\Temp\VMBuilds\TestSerial\Arduino_STM32_genericSTM32F103Z\Release\core.a(usb_mem.c.o)
 .debug_line    0x000063a9      0x560 C:\Users\moseichuk\AppData\Local\Temp\VMBuilds\TestSerial\Arduino_STM32_genericSTM32F103Z\Release\core.a(usb_regs.c.o)
 .debug_line    0x00006909      0x4cd C:\Users\moseichuk\AppData\Local\Temp\VMBuilds\TestSerial\Arduino_STM32_genericSTM32F103Z\Release\core.a(HardwareSerial.cpp.o)
 .debug_line    0x00006dd6       0x8a C:\Users\moseichuk\AppData\Local\Temp\VMBuilds\TestSerial\Arduino_STM32_genericSTM32F103Z\Release\core.a(main.cpp.o)
 .debug_line    0x00006e60      0x58a C:\Users\moseichuk\AppData\Local\Temp\VMBuilds\TestSerial\Arduino_STM32_genericSTM32F103Z\Release\core.a(Print.cpp.o)
 .debug_line    0x000073ea      0x634 C:\Users\moseichuk\AppData\Local\Temp\VMBuilds\TestSerial\Arduino_STM32_genericSTM32F103Z\Release\core.a(usb_serial.cpp.o)
 .debug_line    0x00007a1e      0x2e7 C:\Users\moseichuk\AppData\Local\Temp\VMBuilds\TestSerial\Arduino_STM32_genericSTM32F103Z\Release\core.a(bkp_f1.c.o)
 .debug_line    0x00007d05      0x302 C:\Users\moseichuk\AppData\Local\Temp\VMBuilds\TestSerial\Arduino_STM32_genericSTM32F103Z\Release\core.a(dma.c.o)
 .debug_line    0x00008007      0x282 C:\Users\moseichuk\AppData\Local\Temp\VMBuilds\TestSerial\Arduino_STM32_genericSTM32F103Z\Release\core.a(gpio.c.o)
 .debug_line    0x00008289      0x655 C:\Users\moseichuk\AppData\Local\Temp\VMBuilds\TestSerial\Arduino_STM32_genericSTM32F103Z\Release\core.a(i2c.c.o)
 .debug_line    0x000088de      0x3f3 C:\Users\moseichuk\AppData\Local\Temp\VMBuilds\TestSerial\Arduino_STM32_genericSTM32F103Z\Release\core.a(usart.c.o)
 .debug_line    0x00008cd1       0x7b C:\Users\moseichuk\AppData\Local\Temp\VMBuilds\TestSerial\Arduino_STM32_genericSTM32F103Z\Release\core.a(cxxabi-compat.cpp.o)

.debug_frame    0x00000000     0x23e4
 *(.debug_frame)
 .debug_frame   0x00000000       0x44 C:\Users\moseichuk\AppData\Local\Temp\VMBuilds\TestSerial\Arduino_STM32_genericSTM32F103Z\Release\TestSerial.cpp.o
 .debug_frame   0x00000044       0x28 C:\Users\moseichuk\AppData\Local\Temp\VMBuilds\TestSerial\Arduino_STM32_genericSTM32F103Z\Release\variant\board.cpp.o
 .debug_frame   0x0000006c       0x84 C:\Users\moseichuk\AppData\Local\Temp\VMBuilds\TestSerial\Arduino_STM32_genericSTM32F103Z\Release\variant\boards.cpp.o
 .debug_frame   0x000000f0       0x74 C:\Users\moseichuk\AppData\Local\Temp\VMBuilds\TestSerial\Arduino_STM32_genericSTM32F103Z\Release\variant\boards_setup.cpp.o
 .debug_frame   0x00000164       0x28 C:\Users\moseichuk\AppData\Local\Temp\VMBuilds\TestSerial\Arduino_STM32_genericSTM32F103Z\Release\variant\start_c.c.o
 .debug_frame   0x0000018c      0x130 C:\Users\moseichuk\AppData\Local\Temp\VMBuilds\TestSerial\Arduino_STM32_genericSTM32F103Z\Release\variant\syscalls.c.o
 .debug_frame   0x000002bc       0x64 C:\Users\moseichuk\AppData\Local\Temp\VMBuilds\TestSerial\Arduino_STM32_genericSTM32F103Z\Release\core.a(adc.c.o)
 .debug_frame   0x00000320       0xd0 C:\Users\moseichuk\AppData\Local\Temp\VMBuilds\TestSerial\Arduino_STM32_genericSTM32F103Z\Release\core.a(adc_f1.c.o)
 .debug_frame   0x000003f0      0x200 C:\Users\moseichuk\AppData\Local\Temp\VMBuilds\TestSerial\Arduino_STM32_genericSTM32F103Z\Release\core.a(dma_f1.c.o)
 .debug_frame   0x000005f0      0x128 C:\Users\moseichuk\AppData\Local\Temp\VMBuilds\TestSerial\Arduino_STM32_genericSTM32F103Z\Release\core.a(exti.c.o)
 .debug_frame   0x00000718       0x20 C:\Users\moseichuk\AppData\Local\Temp\VMBuilds\TestSerial\Arduino_STM32_genericSTM32F103Z\Release\core.a(exti_f1.c.o)
 .debug_frame   0x00000738       0x20 C:\Users\moseichuk\AppData\Local\Temp\VMBuilds\TestSerial\Arduino_STM32_genericSTM32F103Z\Release\core.a(flash.c.o)
 .debug_frame   0x00000758       0x7c C:\Users\moseichuk\AppData\Local\Temp\VMBuilds\TestSerial\Arduino_STM32_genericSTM32F103Z\Release\core.a(gpio_f1.c.o)
 .debug_frame   0x000007d4       0x9c C:\Users\moseichuk\AppData\Local\Temp\VMBuilds\TestSerial\Arduino_STM32_genericSTM32F103Z\Release\core.a(i2c_f1.c.o)
 .debug_frame   0x00000870       0x5c C:\Users\moseichuk\AppData\Local\Temp\VMBuilds\TestSerial\Arduino_STM32_genericSTM32F103Z\Release\core.a(nvic.c.o)
 .debug_frame   0x000008cc       0x70 C:\Users\moseichuk\AppData\Local\Temp\VMBuilds\TestSerial\Arduino_STM32_genericSTM32F103Z\Release\core.a(rcc.c.o)
 .debug_frame   0x0000093c       0x98 C:\Users\moseichuk\AppData\Local\Temp\VMBuilds\TestSerial\Arduino_STM32_genericSTM32F103Z\Release\core.a(rcc_f1.c.o)
 .debug_frame   0x000009d4       0x68 C:\Users\moseichuk\AppData\Local\Temp\VMBuilds\TestSerial\Arduino_STM32_genericSTM32F103Z\Release\core.a(systick.c.o)
 .debug_frame   0x00000a3c      0x28c C:\Users\moseichuk\AppData\Local\Temp\VMBuilds\TestSerial\Arduino_STM32_genericSTM32F103Z\Release\core.a(timer.c.o)
 .debug_frame   0x00000cc8      0x118 C:\Users\moseichuk\AppData\Local\Temp\VMBuilds\TestSerial\Arduino_STM32_genericSTM32F103Z\Release\core.a(usart_f1.c.o)
 .debug_frame   0x00000de0       0x28 C:\Users\moseichuk\AppData\Local\Temp\VMBuilds\TestSerial\Arduino_STM32_genericSTM32F103Z\Release\core.a(usart_private.c.o)
 .debug_frame   0x00000e08       0xc8 C:\Users\moseichuk\AppData\Local\Temp\VMBuilds\TestSerial\Arduino_STM32_genericSTM32F103Z\Release\core.a(util.c.o)
 .debug_frame   0x00000ed0       0x6c C:\Users\moseichuk\AppData\Local\Temp\VMBuilds\TestSerial\Arduino_STM32_genericSTM32F103Z\Release\core.a(usb.c.o)
 .debug_frame   0x00000f3c      0x2b4 C:\Users\moseichuk\AppData\Local\Temp\VMBuilds\TestSerial\Arduino_STM32_genericSTM32F103Z\Release\core.a(usb_cdcacm.c.o)
 .debug_frame   0x000011f0       0x20 C:\Users\moseichuk\AppData\Local\Temp\VMBuilds\TestSerial\Arduino_STM32_genericSTM32F103Z\Release\core.a(usb_reg_map.c.o)
 .debug_frame   0x00001210      0x1ac C:\Users\moseichuk\AppData\Local\Temp\VMBuilds\TestSerial\Arduino_STM32_genericSTM32F103Z\Release\core.a(usb_core.c.o)
 .debug_frame   0x000013bc       0x28 C:\Users\moseichuk\AppData\Local\Temp\VMBuilds\TestSerial\Arduino_STM32_genericSTM32F103Z\Release\core.a(usb_init.c.o)
 .debug_frame   0x000013e4       0x44 C:\Users\moseichuk\AppData\Local\Temp\VMBuilds\TestSerial\Arduino_STM32_genericSTM32F103Z\Release\core.a(usb_mem.c.o)
 .debug_frame   0x00001428      0x3d0 C:\Users\moseichuk\AppData\Local\Temp\VMBuilds\TestSerial\Arduino_STM32_genericSTM32F103Z\Release\core.a(usb_regs.c.o)
 .debug_frame   0x000017f8       0xe4 C:\Users\moseichuk\AppData\Local\Temp\VMBuilds\TestSerial\Arduino_STM32_genericSTM32F103Z\Release\core.a(HardwareSerial.cpp.o)
 .debug_frame   0x000018dc       0x38 C:\Users\moseichuk\AppData\Local\Temp\VMBuilds\TestSerial\Arduino_STM32_genericSTM32F103Z\Release\core.a(main.cpp.o)
 .debug_frame   0x00001914      0x378 C:\Users\moseichuk\AppData\Local\Temp\VMBuilds\TestSerial\Arduino_STM32_genericSTM32F103Z\Release\core.a(Print.cpp.o)
 .debug_frame   0x00001c8c      0x228 C:\Users\moseichuk\AppData\Local\Temp\VMBuilds\TestSerial\Arduino_STM32_genericSTM32F103Z\Release\core.a(usb_serial.cpp.o)
 .debug_frame   0x00001eb4       0x88 C:\Users\moseichuk\AppData\Local\Temp\VMBuilds\TestSerial\Arduino_STM32_genericSTM32F103Z\Release\core.a(bkp_f1.c.o)
 .debug_frame   0x00001f3c       0x30 C:\Users\moseichuk\AppData\Local\Temp\VMBuilds\TestSerial\Arduino_STM32_genericSTM32F103Z\Release\core.a(dma.c.o)
 .debug_frame   0x00001f6c       0x28 C:\Users\moseichuk\AppData\Local\Temp\VMBuilds\TestSerial\Arduino_STM32_genericSTM32F103Z\Release\core.a(gpio.c.o)
 .debug_frame   0x00001f94       0xe0 C:\Users\moseichuk\AppData\Local\Temp\VMBuilds\TestSerial\Arduino_STM32_genericSTM32F103Z\Release\core.a(i2c.c.o)
 .debug_frame   0x00002074       0xb4 C:\Users\moseichuk\AppData\Local\Temp\VMBuilds\TestSerial\Arduino_STM32_genericSTM32F103Z\Release\core.a(usart.c.o)
 .debug_frame   0x00002128       0x20 C:\Users\moseichuk\AppData\Local\Temp\VMBuilds\TestSerial\Arduino_STM32_genericSTM32F103Z\Release\core.a(cxxabi-compat.cpp.o)
 .debug_frame   0x00002148       0x2c c:/users/moseichuk/appdata/local/arduino15/packages/arduino/tools/arm-none-eabi-gcc/4.8.3-2014q1/bin/../lib/gcc/arm-none-eabi/4.8.3/armv7-m\libgcc.a(_fixdfdi.o)
 .debug_frame   0x00002174       0x2c c:/users/moseichuk/appdata/local/arduino15/packages/arduino/tools/arm-none-eabi-gcc/4.8.3-2014q1/bin/../lib/gcc/arm-none-eabi/4.8.3/armv7-m\libgcc.a(_fixunsdfdi.o)
 .debug_frame   0x000021a0       0x58 c:/users/moseichuk/appdata/local/arduino15/packages/arduino/tools/arm-none-eabi-gcc/4.8.3-2014q1/bin/../lib/gcc/arm-none-eabi/4.8.3/armv7-m\libgcc.a(bpabi.o)
 .debug_frame   0x000021f8       0x34 c:/users/moseichuk/appdata/local/arduino15/packages/arduino/tools/arm-none-eabi-gcc/4.8.3-2014q1/bin/../lib/gcc/arm-none-eabi/4.8.3/armv7-m\libgcc.a(_divdi3.o)
 .debug_frame   0x0000222c       0x34 c:/users/moseichuk/appdata/local/arduino15/packages/arduino/tools/arm-none-eabi-gcc/4.8.3-2014q1/bin/../lib/gcc/arm-none-eabi/4.8.3/armv7-m\libgcc.a(_udivdi3.o)
 .debug_frame   0x00002260       0x20 c:/users/moseichuk/appdata/local/arduino15/packages/arduino/tools/arm-none-eabi-gcc/4.8.3-2014q1/bin/../lib/gcc/arm-none-eabi/4.8.3/../../../../arm-none-eabi/lib/armv7-m\libc.a(lib_a-errno.o)
 .debug_frame   0x00002280       0x28 c:/users/moseichuk/appdata/local/arduino15/packages/arduino/tools/arm-none-eabi-gcc/4.8.3-2014q1/bin/../lib/gcc/arm-none-eabi/4.8.3/../../../../arm-none-eabi/lib/armv7-m\libc.a(lib_a-exit.o)
 .debug_frame   0x000022a8       0x2c c:/users/moseichuk/appdata/local/arduino15/packages/arduino/tools/arm-none-eabi-gcc/4.8.3-2014q1/bin/../lib/gcc/arm-none-eabi/4.8.3/../../../../arm-none-eabi/lib/armv7-m\libc.a(lib_a-init.o)
 .debug_frame   0x000022d4       0x2c c:/users/moseichuk/appdata/local/arduino15/packages/arduino/tools/arm-none-eabi-gcc/4.8.3-2014q1/bin/../lib/gcc/arm-none-eabi/4.8.3/../../../../arm-none-eabi/lib/armv7-m\libc.a(lib_a-memset.o)
 .debug_frame   0x00002300       0x20 c:/users/moseichuk/appdata/local/arduino15/packages/arduino/tools/arm-none-eabi-gcc/4.8.3-2014q1/bin/../lib/gcc/arm-none-eabi/4.8.3/../../../../arm-none-eabi/lib/armv7-m\libc.a(lib_a-strlen.o)
 .debug_frame   0x00002320       0x48 c:/users/moseichuk/appdata/local/arduino15/packages/arduino/tools/arm-none-eabi-gcc/4.8.3-2014q1/bin/../lib/gcc/arm-none-eabi/4.8.3/../../../../arm-none-eabi/lib/armv7-m\libc.a(lib_a-__call_atexit.o)
 .debug_frame   0x00002368       0x20 c:/users/moseichuk/appdata/local/arduino15/packages/arduino/tools/arm-none-eabi-gcc/4.8.3-2014q1/bin/../lib/gcc/arm-none-eabi/4.8.3/../../../../arm-none-eabi/lib/armv7-m\libc.a(lib_a-atexit.o)
 .debug_frame   0x00002388       0x2c c:/users/moseichuk/appdata/local/arduino15/packages/arduino/tools/arm-none-eabi-gcc/4.8.3-2014q1/bin/../lib/gcc/arm-none-eabi/4.8.3/../../../../arm-none-eabi/lib/armv7-m\libc.a(lib_a-fini.o)
 .debug_frame   0x000023b4       0x30 c:/users/moseichuk/appdata/local/arduino15/packages/arduino/tools/arm-none-eabi-gcc/4.8.3-2014q1/bin/../lib/gcc/arm-none-eabi/4.8.3/../../../../arm-none-eabi/lib/armv7-m\libc.a(lib_a-__atexit.o)

.debug_str      0x00000000     0x74f4
 *(.debug_str)
 .debug_str     0x00000000      0x343 C:\Users\moseichuk\AppData\Local\Temp\VMBuilds\TestSerial\Arduino_STM32_genericSTM32F103Z\Release\TestSerial.cpp.o
                                0x3b2 (size before relaxing)
 .debug_str     0x00000343      0xb39 C:\Users\moseichuk\AppData\Local\Temp\VMBuilds\TestSerial\Arduino_STM32_genericSTM32F103Z\Release\variant\board.cpp.o
                                0xd86 (size before relaxing)
 .debug_str     0x00000e7c      0x771 C:\Users\moseichuk\AppData\Local\Temp\VMBuilds\TestSerial\Arduino_STM32_genericSTM32F103Z\Release\variant\boards.cpp.o
                               0x111d (size before relaxing)
 .debug_str     0x000015ed      0x506 C:\Users\moseichuk\AppData\Local\Temp\VMBuilds\TestSerial\Arduino_STM32_genericSTM32F103Z\Release\variant\boards_setup.cpp.o
                               0x12e8 (size before relaxing)
 .debug_str     0x00001af3      0x1a8 C:\Users\moseichuk\AppData\Local\Temp\VMBuilds\TestSerial\Arduino_STM32_genericSTM32F103Z\Release\variant\start_c.c.o
                                0x1e6 (size before relaxing)
 .debug_str     0x00001c9b      0x1ba C:\Users\moseichuk\AppData\Local\Temp\VMBuilds\TestSerial\Arduino_STM32_genericSTM32F103Z\Release\variant\syscalls.c.o
                                0x368 (size before relaxing)
 .debug_str     0x00001e55      0x213 C:\Users\moseichuk\AppData\Local\Temp\VMBuilds\TestSerial\Arduino_STM32_genericSTM32F103Z\Release\core.a(adc.c.o)
                                0xab0 (size before relaxing)
 .debug_str     0x00002068      0x15d C:\Users\moseichuk\AppData\Local\Temp\VMBuilds\TestSerial\Arduino_STM32_genericSTM32F103Z\Release\core.a(adc_f1.c.o)
                                0xde0 (size before relaxing)
 .debug_str     0x000021c5      0xb05 C:\Users\moseichuk\AppData\Local\Temp\VMBuilds\TestSerial\Arduino_STM32_genericSTM32F103Z\Release\core.a(dma_f1.c.o)
                               0x13cf (size before relaxing)
 .debug_str     0x00002cca      0x22f C:\Users\moseichuk\AppData\Local\Temp\VMBuilds\TestSerial\Arduino_STM32_genericSTM32F103Z\Release\core.a(exti.c.o)
                                0x92a (size before relaxing)
 .debug_str     0x00002ef9       0x8c C:\Users\moseichuk\AppData\Local\Temp\VMBuilds\TestSerial\Arduino_STM32_genericSTM32F103Z\Release\core.a(exti_f1.c.o)
                                0x2d5 (size before relaxing)
 .debug_str     0x00002f85       0x59 C:\Users\moseichuk\AppData\Local\Temp\VMBuilds\TestSerial\Arduino_STM32_genericSTM32F103Z\Release\core.a(flash.c.o)
                                0x1f4 (size before relaxing)
 .debug_str     0x00002fde      0x28d C:\Users\moseichuk\AppData\Local\Temp\VMBuilds\TestSerial\Arduino_STM32_genericSTM32F103Z\Release\core.a(gpio_f1.c.o)
                                0x7d0 (size before relaxing)
 .debug_str     0x0000326b      0x218 C:\Users\moseichuk\AppData\Local\Temp\VMBuilds\TestSerial\Arduino_STM32_genericSTM32F103Z\Release\core.a(i2c_f1.c.o)
                                0xd09 (size before relaxing)
 .debug_str     0x00003483       0xc8 C:\Users\moseichuk\AppData\Local\Temp\VMBuilds\TestSerial\Arduino_STM32_genericSTM32F103Z\Release\core.a(nvic.c.o)
                                0x6fd (size before relaxing)
 .debug_str     0x0000354b       0xec C:\Users\moseichuk\AppData\Local\Temp\VMBuilds\TestSerial\Arduino_STM32_genericSTM32F103Z\Release\core.a(rcc.c.o)
                                0x549 (size before relaxing)
 .debug_str     0x00003637       0xe0 C:\Users\moseichuk\AppData\Local\Temp\VMBuilds\TestSerial\Arduino_STM32_genericSTM32F103Z\Release\core.a(rcc_f1.c.o)
                                0x7ea (size before relaxing)
 .debug_str     0x00003717       0xc5 C:\Users\moseichuk\AppData\Local\Temp\VMBuilds\TestSerial\Arduino_STM32_genericSTM32F103Z\Release\core.a(systick.c.o)
                                0x25a (size before relaxing)
 .debug_str     0x000037dc      0x438 C:\Users\moseichuk\AppData\Local\Temp\VMBuilds\TestSerial\Arduino_STM32_genericSTM32F103Z\Release\core.a(timer.c.o)
                                0xf49 (size before relaxing)
 .debug_str     0x00003c14      0x1c4 C:\Users\moseichuk\AppData\Local\Temp\VMBuilds\TestSerial\Arduino_STM32_genericSTM32F103Z\Release\core.a(usart_f1.c.o)
                                0xb08 (size before relaxing)
 .debug_str     0x00003dd8       0x55 C:\Users\moseichuk\AppData\Local\Temp\VMBuilds\TestSerial\Arduino_STM32_genericSTM32F103Z\Release\core.a(usart_private.c.o)
                                0x87f (size before relaxing)
 .debug_str     0x00003e2d      0x110 C:\Users\moseichuk\AppData\Local\Temp\VMBuilds\TestSerial\Arduino_STM32_genericSTM32F103Z\Release\core.a(util.c.o)
                                0xa2c (size before relaxing)
 .debug_str     0x00003f3d      0x5fe C:\Users\moseichuk\AppData\Local\Temp\VMBuilds\TestSerial\Arduino_STM32_genericSTM32F103Z\Release\core.a(usb.c.o)
                                0xa57 (size before relaxing)
 .debug_str     0x0000453b      0x973 C:\Users\moseichuk\AppData\Local\Temp\VMBuilds\TestSerial\Arduino_STM32_genericSTM32F103Z\Release\core.a(usb_cdcacm.c.o)
                               0x1810 (size before relaxing)
 .debug_str     0x00004eae       0x82 C:\Users\moseichuk\AppData\Local\Temp\VMBuilds\TestSerial\Arduino_STM32_genericSTM32F103Z\Release\core.a(usb_reg_map.c.o)
                                0x27d (size before relaxing)
 .debug_str     0x00004f30      0x482 C:\Users\moseichuk\AppData\Local\Temp\VMBuilds\TestSerial\Arduino_STM32_genericSTM32F103Z\Release\core.a(usb_core.c.o)
                                0xab5 (size before relaxing)
 .debug_str     0x000053b2       0x87 C:\Users\moseichuk\AppData\Local\Temp\VMBuilds\TestSerial\Arduino_STM32_genericSTM32F103Z\Release\core.a(usb_init.c.o)
                                0x519 (size before relaxing)
 .debug_str     0x00005439       0x8b C:\Users\moseichuk\AppData\Local\Temp\VMBuilds\TestSerial\Arduino_STM32_genericSTM32F103Z\Release\core.a(usb_mem.c.o)
                                0x1cf (size before relaxing)
 .debug_str     0x000054c4      0x3cc C:\Users\moseichuk\AppData\Local\Temp\VMBuilds\TestSerial\Arduino_STM32_genericSTM32F103Z\Release\core.a(usb_regs.c.o)
                                0x557 (size before relaxing)
 .debug_str     0x00005890      0xf78 C:\Users\moseichuk\AppData\Local\Temp\VMBuilds\TestSerial\Arduino_STM32_genericSTM32F103Z\Release\core.a(HardwareSerial.cpp.o)
                               0x1bbf (size before relaxing)
 .debug_str     0x00006808       0x59 C:\Users\moseichuk\AppData\Local\Temp\VMBuilds\TestSerial\Arduino_STM32_genericSTM32F103Z\Release\core.a(main.cpp.o)
                                0x189 (size before relaxing)
 .debug_str     0x00006861      0x3b9 C:\Users\moseichuk\AppData\Local\Temp\VMBuilds\TestSerial\Arduino_STM32_genericSTM32F103Z\Release\core.a(Print.cpp.o)
                                0xf8d (size before relaxing)
 .debug_str     0x00006c1a      0x38b C:\Users\moseichuk\AppData\Local\Temp\VMBuilds\TestSerial\Arduino_STM32_genericSTM32F103Z\Release\core.a(usb_serial.cpp.o)
                               0x1cb1 (size before relaxing)
 .debug_str     0x00006fa5      0x130 C:\Users\moseichuk\AppData\Local\Temp\VMBuilds\TestSerial\Arduino_STM32_genericSTM32F103Z\Release\core.a(bkp_f1.c.o)
                                0x51d (size before relaxing)
 .debug_str     0x000070d5      0x123 C:\Users\moseichuk\AppData\Local\Temp\VMBuilds\TestSerial\Arduino_STM32_genericSTM32F103Z\Release\core.a(dma.c.o)
                                0xa28 (size before relaxing)
 .debug_str     0x000071f8       0x4c C:\Users\moseichuk\AppData\Local\Temp\VMBuilds\TestSerial\Arduino_STM32_genericSTM32F103Z\Release\core.a(gpio.c.o)
                                0x438 (size before relaxing)
 .debug_str     0x00007244      0x1bb C:\Users\moseichuk\AppData\Local\Temp\VMBuilds\TestSerial\Arduino_STM32_genericSTM32F103Z\Release\core.a(i2c.c.o)
                                0xe60 (size before relaxing)
 .debug_str     0x000073ff       0x94 C:\Users\moseichuk\AppData\Local\Temp\VMBuilds\TestSerial\Arduino_STM32_genericSTM32F103Z\Release\core.a(usart.c.o)
                                0x9c0 (size before relaxing)
 .debug_str     0x00007493       0x61 C:\Users\moseichuk\AppData\Local\Temp\VMBuilds\TestSerial\Arduino_STM32_genericSTM32F103Z\Release\core.a(cxxabi-compat.cpp.o)
                                0x160 (size before relaxing)

.debug_loc      0x00000000     0x8c07
 *(.debug_loc)
 .debug_loc     0x00000000      0x246 C:\Users\moseichuk\AppData\Local\Temp\VMBuilds\TestSerial\Arduino_STM32_genericSTM32F103Z\Release\variant\boards.cpp.o
 .debug_loc     0x00000246       0x13 C:\Users\moseichuk\AppData\Local\Temp\VMBuilds\TestSerial\Arduino_STM32_genericSTM32F103Z\Release\variant\boards_setup.cpp.o
 .debug_loc     0x00000259       0xa5 C:\Users\moseichuk\AppData\Local\Temp\VMBuilds\TestSerial\Arduino_STM32_genericSTM32F103Z\Release\variant\start_c.c.o
 .debug_loc     0x000002fe      0x38a C:\Users\moseichuk\AppData\Local\Temp\VMBuilds\TestSerial\Arduino_STM32_genericSTM32F103Z\Release\variant\syscalls.c.o
 .debug_loc     0x00000688      0x145 C:\Users\moseichuk\AppData\Local\Temp\VMBuilds\TestSerial\Arduino_STM32_genericSTM32F103Z\Release\core.a(adc.c.o)
 .debug_loc     0x000007cd      0x313 C:\Users\moseichuk\AppData\Local\Temp\VMBuilds\TestSerial\Arduino_STM32_genericSTM32F103Z\Release\core.a(adc_f1.c.o)
 .debug_loc     0x00000ae0      0xda4 C:\Users\moseichuk\AppData\Local\Temp\VMBuilds\TestSerial\Arduino_STM32_genericSTM32F103Z\Release\core.a(dma_f1.c.o)
 .debug_loc     0x00001884      0x6f0 C:\Users\moseichuk\AppData\Local\Temp\VMBuilds\TestSerial\Arduino_STM32_genericSTM32F103Z\Release\core.a(exti.c.o)
 .debug_loc     0x00001f74       0x42 C:\Users\moseichuk\AppData\Local\Temp\VMBuilds\TestSerial\Arduino_STM32_genericSTM32F103Z\Release\core.a(exti_f1.c.o)
 .debug_loc     0x00001fb6       0x3f C:\Users\moseichuk\AppData\Local\Temp\VMBuilds\TestSerial\Arduino_STM32_genericSTM32F103Z\Release\core.a(flash.c.o)
 .debug_loc     0x00001ff5      0x267 C:\Users\moseichuk\AppData\Local\Temp\VMBuilds\TestSerial\Arduino_STM32_genericSTM32F103Z\Release\core.a(gpio_f1.c.o)
 .debug_loc     0x0000225c      0x1c4 C:\Users\moseichuk\AppData\Local\Temp\VMBuilds\TestSerial\Arduino_STM32_genericSTM32F103Z\Release\core.a(i2c_f1.c.o)
 .debug_loc     0x00002420      0x121 C:\Users\moseichuk\AppData\Local\Temp\VMBuilds\TestSerial\Arduino_STM32_genericSTM32F103Z\Release\core.a(nvic.c.o)
 .debug_loc     0x00002541      0x131 C:\Users\moseichuk\AppData\Local\Temp\VMBuilds\TestSerial\Arduino_STM32_genericSTM32F103Z\Release\core.a(rcc.c.o)
 .debug_loc     0x00002672      0x352 C:\Users\moseichuk\AppData\Local\Temp\VMBuilds\TestSerial\Arduino_STM32_genericSTM32F103Z\Release\core.a(rcc_f1.c.o)
 .debug_loc     0x000029c4      0xf2c C:\Users\moseichuk\AppData\Local\Temp\VMBuilds\TestSerial\Arduino_STM32_genericSTM32F103Z\Release\core.a(timer.c.o)
 .debug_loc     0x000038f0      0x2f6 C:\Users\moseichuk\AppData\Local\Temp\VMBuilds\TestSerial\Arduino_STM32_genericSTM32F103Z\Release\core.a(usart_f1.c.o)
 .debug_loc     0x00003be6       0x3f C:\Users\moseichuk\AppData\Local\Temp\VMBuilds\TestSerial\Arduino_STM32_genericSTM32F103Z\Release\core.a(usart_private.c.o)
 .debug_loc     0x00003c25      0x27f C:\Users\moseichuk\AppData\Local\Temp\VMBuilds\TestSerial\Arduino_STM32_genericSTM32F103Z\Release\core.a(util.c.o)
 .debug_loc     0x00003ea4      0x4c8 C:\Users\moseichuk\AppData\Local\Temp\VMBuilds\TestSerial\Arduino_STM32_genericSTM32F103Z\Release\core.a(usb.c.o)
 .debug_loc     0x0000436c      0xaab C:\Users\moseichuk\AppData\Local\Temp\VMBuilds\TestSerial\Arduino_STM32_genericSTM32F103Z\Release\core.a(usb_cdcacm.c.o)
 .debug_loc     0x00004e17       0xf5 C:\Users\moseichuk\AppData\Local\Temp\VMBuilds\TestSerial\Arduino_STM32_genericSTM32F103Z\Release\core.a(usb_reg_map.c.o)
 .debug_loc     0x00004f0c      0x7a1 C:\Users\moseichuk\AppData\Local\Temp\VMBuilds\TestSerial\Arduino_STM32_genericSTM32F103Z\Release\core.a(usb_core.c.o)
 .debug_loc     0x000056ad      0x293 C:\Users\moseichuk\AppData\Local\Temp\VMBuilds\TestSerial\Arduino_STM32_genericSTM32F103Z\Release\core.a(usb_mem.c.o)
 .debug_loc     0x00005940      0xbab C:\Users\moseichuk\AppData\Local\Temp\VMBuilds\TestSerial\Arduino_STM32_genericSTM32F103Z\Release\core.a(usb_regs.c.o)
 .debug_loc     0x000064eb      0x3dc C:\Users\moseichuk\AppData\Local\Temp\VMBuilds\TestSerial\Arduino_STM32_genericSTM32F103Z\Release\core.a(HardwareSerial.cpp.o)
 .debug_loc     0x000068c7     0x10a7 C:\Users\moseichuk\AppData\Local\Temp\VMBuilds\TestSerial\Arduino_STM32_genericSTM32F103Z\Release\core.a(Print.cpp.o)
 .debug_loc     0x0000796e      0x596 C:\Users\moseichuk\AppData\Local\Temp\VMBuilds\TestSerial\Arduino_STM32_genericSTM32F103Z\Release\core.a(usb_serial.cpp.o)
 .debug_loc     0x00007f04       0xc9 C:\Users\moseichuk\AppData\Local\Temp\VMBuilds\TestSerial\Arduino_STM32_genericSTM32F103Z\Release\core.a(bkp_f1.c.o)
 .debug_loc     0x00007fcd       0x42 C:\Users\moseichuk\AppData\Local\Temp\VMBuilds\TestSerial\Arduino_STM32_genericSTM32F103Z\Release\core.a(dma.c.o)
 .debug_loc     0x0000800f       0x2c C:\Users\moseichuk\AppData\Local\Temp\VMBuilds\TestSerial\Arduino_STM32_genericSTM32F103Z\Release\core.a(gpio.c.o)
 .debug_loc     0x0000803b      0x81d C:\Users\moseichuk\AppData\Local\Temp\VMBuilds\TestSerial\Arduino_STM32_genericSTM32F103Z\Release\core.a(i2c.c.o)
 .debug_loc     0x00008858      0x3af C:\Users\moseichuk\AppData\Local\Temp\VMBuilds\TestSerial\Arduino_STM32_genericSTM32F103Z\Release\core.a(usart.c.o)

.debug_macinfo
 *(.debug_macinfo)

.debug_weaknames
 *(.debug_weaknames)

.debug_funcnames
 *(.debug_funcnames)

.debug_typenames
 *(.debug_typenames)

.debug_varnames
 *(.debug_varnames)

.note.gnu.arm.ident
 *(.note.gnu.arm.ident)

.ARM.attributes
                0x00000000       0x29
 *(.ARM.attributes)
 .ARM.attributes
                0x00000000       0x1d c:/users/moseichuk/appdata/local/arduino15/packages/arduino/tools/arm-none-eabi-gcc/4.8.3-2014q1/bin/../lib/gcc/arm-none-eabi/4.8.3/armv7-m/crti.o
 .ARM.attributes
                0x0000001d       0x2d c:/users/moseichuk/appdata/local/arduino15/packages/arduino/tools/arm-none-eabi-gcc/4.8.3-2014q1/bin/../lib/gcc/arm-none-eabi/4.8.3/armv7-m/crtbegin.o
 .ARM.attributes
                0x0000004a       0x1b c:/users/moseichuk/appdata/local/arduino15/packages/arduino/tools/arm-none-eabi-gcc/4.8.3-2014q1/bin/../lib/gcc/arm-none-eabi/4.8.3/../../../../arm-none-eabi/lib/armv7-m/crt0.o
 .ARM.attributes
                0x00000065       0x33 C:\Users\moseichuk\AppData\Local\Temp\VMBuilds\TestSerial\Arduino_STM32_genericSTM32F103Z\Release\TestSerial.cpp.o
 .ARM.attributes
                0x00000098       0x33 C:\Users\moseichuk\AppData\Local\Temp\VMBuilds\TestSerial\Arduino_STM32_genericSTM32F103Z\Release\variant\board.cpp.o
 .ARM.attributes
                0x000000cb       0x33 C:\Users\moseichuk\AppData\Local\Temp\VMBuilds\TestSerial\Arduino_STM32_genericSTM32F103Z\Release\variant\boards.cpp.o
 .ARM.attributes
                0x000000fe       0x33 C:\Users\moseichuk\AppData\Local\Temp\VMBuilds\TestSerial\Arduino_STM32_genericSTM32F103Z\Release\variant\boards_setup.cpp.o
 .ARM.attributes
                0x00000131       0x1b C:\Users\moseichuk\AppData\Local\Temp\VMBuilds\TestSerial\Arduino_STM32_genericSTM32F103Z\Release\variant\start.S.o
 .ARM.attributes
                0x0000014c       0x33 C:\Users\moseichuk\AppData\Local\Temp\VMBuilds\TestSerial\Arduino_STM32_genericSTM32F103Z\Release\variant\start_c.c.o
 .ARM.attributes
                0x0000017f       0x33 C:\Users\moseichuk\AppData\Local\Temp\VMBuilds\TestSerial\Arduino_STM32_genericSTM32F103Z\Release\variant\syscalls.c.o
 .ARM.attributes
                0x000001b2       0x1b C:\Users\moseichuk\AppData\Local\Temp\VMBuilds\TestSerial\Arduino_STM32_genericSTM32F103Z\Release\core.a(exc.S.o)
 .ARM.attributes
                0x000001cd       0x1b C:\Users\moseichuk\AppData\Local\Temp\VMBuilds\TestSerial\Arduino_STM32_genericSTM32F103Z\Release\core.a(isrs.S.o)
 .ARM.attributes
                0x000001e8       0x1b C:\Users\moseichuk\AppData\Local\Temp\VMBuilds\TestSerial\Arduino_STM32_genericSTM32F103Z\Release\core.a(vector_table.S.o)
 .ARM.attributes
                0x00000203       0x33 C:\Users\moseichuk\AppData\Local\Temp\VMBuilds\TestSerial\Arduino_STM32_genericSTM32F103Z\Release\core.a(adc.c.o)
 .ARM.attributes
                0x00000236       0x33 C:\Users\moseichuk\AppData\Local\Temp\VMBuilds\TestSerial\Arduino_STM32_genericSTM32F103Z\Release\core.a(adc_f1.c.o)
 .ARM.attributes
                0x00000269       0x33 C:\Users\moseichuk\AppData\Local\Temp\VMBuilds\TestSerial\Arduino_STM32_genericSTM32F103Z\Release\core.a(dma_f1.c.o)
 .ARM.attributes
                0x0000029c       0x33 C:\Users\moseichuk\AppData\Local\Temp\VMBuilds\TestSerial\Arduino_STM32_genericSTM32F103Z\Release\core.a(exti.c.o)
 .ARM.attributes
                0x000002cf       0x33 C:\Users\moseichuk\AppData\Local\Temp\VMBuilds\TestSerial\Arduino_STM32_genericSTM32F103Z\Release\core.a(exti_f1.c.o)
 .ARM.attributes
                0x00000302       0x33 C:\Users\moseichuk\AppData\Local\Temp\VMBuilds\TestSerial\Arduino_STM32_genericSTM32F103Z\Release\core.a(flash.c.o)
 .ARM.attributes
                0x00000335       0x33 C:\Users\moseichuk\AppData\Local\Temp\VMBuilds\TestSerial\Arduino_STM32_genericSTM32F103Z\Release\core.a(gpio_f1.c.o)
 .ARM.attributes
                0x00000368       0x33 C:\Users\moseichuk\AppData\Local\Temp\VMBuilds\TestSerial\Arduino_STM32_genericSTM32F103Z\Release\core.a(i2c_f1.c.o)
 .ARM.attributes
                0x0000039b       0x33 C:\Users\moseichuk\AppData\Local\Temp\VMBuilds\TestSerial\Arduino_STM32_genericSTM32F103Z\Release\core.a(nvic.c.o)
 .ARM.attributes
                0x000003ce       0x33 C:\Users\moseichuk\AppData\Local\Temp\VMBuilds\TestSerial\Arduino_STM32_genericSTM32F103Z\Release\core.a(rcc.c.o)
 .ARM.attributes
                0x00000401       0x33 C:\Users\moseichuk\AppData\Local\Temp\VMBuilds\TestSerial\Arduino_STM32_genericSTM32F103Z\Release\core.a(rcc_f1.c.o)
 .ARM.attributes
                0x00000434       0x33 C:\Users\moseichuk\AppData\Local\Temp\VMBuilds\TestSerial\Arduino_STM32_genericSTM32F103Z\Release\core.a(systick.c.o)
 .ARM.attributes
                0x00000467       0x33 C:\Users\moseichuk\AppData\Local\Temp\VMBuilds\TestSerial\Arduino_STM32_genericSTM32F103Z\Release\core.a(timer.c.o)
 .ARM.attributes
                0x0000049a       0x33 C:\Users\moseichuk\AppData\Local\Temp\VMBuilds\TestSerial\Arduino_STM32_genericSTM32F103Z\Release\core.a(usart_f1.c.o)
 .ARM.attributes
                0x000004cd       0x33 C:\Users\moseichuk\AppData\Local\Temp\VMBuilds\TestSerial\Arduino_STM32_genericSTM32F103Z\Release\core.a(usart_private.c.o)
 .ARM.attributes
                0x00000500       0x33 C:\Users\moseichuk\AppData\Local\Temp\VMBuilds\TestSerial\Arduino_STM32_genericSTM32F103Z\Release\core.a(util.c.o)
 .ARM.attributes
                0x00000533       0x33 C:\Users\moseichuk\AppData\Local\Temp\VMBuilds\TestSerial\Arduino_STM32_genericSTM32F103Z\Release\core.a(usb.c.o)
 .ARM.attributes
                0x00000566       0x33 C:\Users\moseichuk\AppData\Local\Temp\VMBuilds\TestSerial\Arduino_STM32_genericSTM32F103Z\Release\core.a(usb_cdcacm.c.o)
 .ARM.attributes
                0x00000599       0x33 C:\Users\moseichuk\AppData\Local\Temp\VMBuilds\TestSerial\Arduino_STM32_genericSTM32F103Z\Release\core.a(usb_reg_map.c.o)
 .ARM.attributes
                0x000005cc       0x33 C:\Users\moseichuk\AppData\Local\Temp\VMBuilds\TestSerial\Arduino_STM32_genericSTM32F103Z\Release\core.a(usb_core.c.o)
 .ARM.attributes
                0x000005ff       0x33 C:\Users\moseichuk\AppData\Local\Temp\VMBuilds\TestSerial\Arduino_STM32_genericSTM32F103Z\Release\core.a(usb_init.c.o)
 .ARM.attributes
                0x00000632       0x33 C:\Users\moseichuk\AppData\Local\Temp\VMBuilds\TestSerial\Arduino_STM32_genericSTM32F103Z\Release\core.a(usb_mem.c.o)
 .ARM.attributes
                0x00000665       0x33 C:\Users\moseichuk\AppData\Local\Temp\VMBuilds\TestSerial\Arduino_STM32_genericSTM32F103Z\Release\core.a(usb_regs.c.o)
 .ARM.attributes
                0x00000698       0x33 C:\Users\moseichuk\AppData\Local\Temp\VMBuilds\TestSerial\Arduino_STM32_genericSTM32F103Z\Release\core.a(HardwareSerial.cpp.o)
 .ARM.attributes
                0x000006cb       0x33 C:\Users\moseichuk\AppData\Local\Temp\VMBuilds\TestSerial\Arduino_STM32_genericSTM32F103Z\Release\core.a(main.cpp.o)
 .ARM.attributes
                0x000006fe       0x33 C:\Users\moseichuk\AppData\Local\Temp\VMBuilds\TestSerial\Arduino_STM32_genericSTM32F103Z\Release\core.a(Print.cpp.o)
 .ARM.attributes
                0x00000731       0x33 C:\Users\moseichuk\AppData\Local\Temp\VMBuilds\TestSerial\Arduino_STM32_genericSTM32F103Z\Release\core.a(usb_serial.cpp.o)
 .ARM.attributes
                0x00000764       0x33 C:\Users\moseichuk\AppData\Local\Temp\VMBuilds\TestSerial\Arduino_STM32_genericSTM32F103Z\Release\core.a(bkp_f1.c.o)
 .ARM.attributes
                0x00000797       0x33 C:\Users\moseichuk\AppData\Local\Temp\VMBuilds\TestSerial\Arduino_STM32_genericSTM32F103Z\Release\core.a(dma.c.o)
 .ARM.attributes
                0x000007ca       0x33 C:\Users\moseichuk\AppData\Local\Temp\VMBuilds\TestSerial\Arduino_STM32_genericSTM32F103Z\Release\core.a(gpio.c.o)
 .ARM.attributes
                0x000007fd       0x33 C:\Users\moseichuk\AppData\Local\Temp\VMBuilds\TestSerial\Arduino_STM32_genericSTM32F103Z\Release\core.a(i2c.c.o)
 .ARM.attributes
                0x00000830       0x33 C:\Users\moseichuk\AppData\Local\Temp\VMBuilds\TestSerial\Arduino_STM32_genericSTM32F103Z\Release\core.a(usart.c.o)
 .ARM.attributes
                0x00000863       0x33 C:\Users\moseichuk\AppData\Local\Temp\VMBuilds\TestSerial\Arduino_STM32_genericSTM32F103Z\Release\core.a(cxxabi-compat.cpp.o)
 .ARM.attributes
                0x00000896       0x1d c:/users/moseichuk/appdata/local/arduino15/packages/arduino/tools/arm-none-eabi-gcc/4.8.3-2014q1/bin/../lib/gcc/arm-none-eabi/4.8.3/armv7-m\libgcc.a(_arm_addsubdf3.o)
 .ARM.attributes
                0x000008b3       0x1d c:/users/moseichuk/appdata/local/arduino15/packages/arduino/tools/arm-none-eabi-gcc/4.8.3-2014q1/bin/../lib/gcc/arm-none-eabi/4.8.3/armv7-m\libgcc.a(_arm_muldivdf3.o)
 .ARM.attributes
                0x000008d0       0x1d c:/users/moseichuk/appdata/local/arduino15/packages/arduino/tools/arm-none-eabi-gcc/4.8.3-2014q1/bin/../lib/gcc/arm-none-eabi/4.8.3/armv7-m\libgcc.a(_arm_cmpdf2.o)
 .ARM.attributes
                0x000008ed       0x1d c:/users/moseichuk/appdata/local/arduino15/packages/arduino/tools/arm-none-eabi-gcc/4.8.3-2014q1/bin/../lib/gcc/arm-none-eabi/4.8.3/armv7-m\libgcc.a(_arm_fixdfsi.o)
 .ARM.attributes
                0x0000090a       0x1d c:/users/moseichuk/appdata/local/arduino15/packages/arduino/tools/arm-none-eabi-gcc/4.8.3-2014q1/bin/../lib/gcc/arm-none-eabi/4.8.3/armv7-m\libgcc.a(_aeabi_uldivmod.o)
 .ARM.attributes
                0x00000927       0x2d c:/users/moseichuk/appdata/local/arduino15/packages/arduino/tools/arm-none-eabi-gcc/4.8.3-2014q1/bin/../lib/gcc/arm-none-eabi/4.8.3/armv7-m\libgcc.a(_fixdfdi.o)
 .ARM.attributes
                0x00000954       0x2d c:/users/moseichuk/appdata/local/arduino15/packages/arduino/tools/arm-none-eabi-gcc/4.8.3-2014q1/bin/../lib/gcc/arm-none-eabi/4.8.3/armv7-m\libgcc.a(_fixunsdfdi.o)
 .ARM.attributes
                0x00000981       0x2d c:/users/moseichuk/appdata/local/arduino15/packages/arduino/tools/arm-none-eabi-gcc/4.8.3-2014q1/bin/../lib/gcc/arm-none-eabi/4.8.3/armv7-m\libgcc.a(bpabi.o)
 .ARM.attributes
                0x000009ae       0x1d c:/users/moseichuk/appdata/local/arduino15/packages/arduino/tools/arm-none-eabi-gcc/4.8.3-2014q1/bin/../lib/gcc/arm-none-eabi/4.8.3/armv7-m\libgcc.a(_dvmd_tls.o)
 .ARM.attributes
                0x000009cb       0x1d c:/users/moseichuk/appdata/local/arduino15/packages/arduino/tools/arm-none-eabi-gcc/4.8.3-2014q1/bin/../lib/gcc/arm-none-eabi/4.8.3/armv7-m\libgcc.a(_arm_fixunsdfsi.o)
 .ARM.attributes
                0x000009e8       0x2d c:/users/moseichuk/appdata/local/arduino15/packages/arduino/tools/arm-none-eabi-gcc/4.8.3-2014q1/bin/../lib/gcc/arm-none-eabi/4.8.3/armv7-m\libgcc.a(_divdi3.o)
 .ARM.attributes
                0x00000a15       0x2d c:/users/moseichuk/appdata/local/arduino15/packages/arduino/tools/arm-none-eabi-gcc/4.8.3-2014q1/bin/../lib/gcc/arm-none-eabi/4.8.3/armv7-m\libgcc.a(_udivdi3.o)
 .ARM.attributes
                0x00000a42       0x2d c:/users/moseichuk/appdata/local/arduino15/packages/arduino/tools/arm-none-eabi-gcc/4.8.3-2014q1/bin/../lib/gcc/arm-none-eabi/4.8.3/../../../../arm-none-eabi/lib/armv7-m\libc.a(lib_a-errno.o)
 .ARM.attributes
                0x00000a6f       0x2d c:/users/moseichuk/appdata/local/arduino15/packages/arduino/tools/arm-none-eabi-gcc/4.8.3-2014q1/bin/../lib/gcc/arm-none-eabi/4.8.3/../../../../arm-none-eabi/lib/armv7-m\libc.a(lib_a-exit.o)
 .ARM.attributes
                0x00000a9c       0x2d c:/users/moseichuk/appdata/local/arduino15/packages/arduino/tools/arm-none-eabi-gcc/4.8.3-2014q1/bin/../lib/gcc/arm-none-eabi/4.8.3/../../../../arm-none-eabi/lib/armv7-m\libc.a(lib_a-impure.o)
 .ARM.attributes
                0x00000ac9       0x2d c:/users/moseichuk/appdata/local/arduino15/packages/arduino/tools/arm-none-eabi-gcc/4.8.3-2014q1/bin/../lib/gcc/arm-none-eabi/4.8.3/../../../../arm-none-eabi/lib/armv7-m\libc.a(lib_a-init.o)
 .ARM.attributes
                0x00000af6       0x2d c:/users/moseichuk/appdata/local/arduino15/packages/arduino/tools/arm-none-eabi-gcc/4.8.3-2014q1/bin/../lib/gcc/arm-none-eabi/4.8.3/../../../../arm-none-eabi/lib/armv7-m\libc.a(lib_a-memset.o)
 .ARM.attributes
                0x00000b23       0x2d c:/users/moseichuk/appdata/local/arduino15/packages/arduino/tools/arm-none-eabi-gcc/4.8.3-2014q1/bin/../lib/gcc/arm-none-eabi/4.8.3/../../../../arm-none-eabi/lib/armv7-m\libc.a(lib_a-strlen.o)
 .ARM.attributes
                0x00000b50       0x2d c:/users/moseichuk/appdata/local/arduino15/packages/arduino/tools/arm-none-eabi-gcc/4.8.3-2014q1/bin/../lib/gcc/arm-none-eabi/4.8.3/../../../../arm-none-eabi/lib/armv7-m\libc.a(lib_a-__call_atexit.o)
 .ARM.attributes
                0x00000b7d       0x2d c:/users/moseichuk/appdata/local/arduino15/packages/arduino/tools/arm-none-eabi-gcc/4.8.3-2014q1/bin/../lib/gcc/arm-none-eabi/4.8.3/../../../../arm-none-eabi/lib/armv7-m\libc.a(lib_a-atexit.o)
 .ARM.attributes
                0x00000baa       0x2d c:/users/moseichuk/appdata/local/arduino15/packages/arduino/tools/arm-none-eabi-gcc/4.8.3-2014q1/bin/../lib/gcc/arm-none-eabi/4.8.3/../../../../arm-none-eabi/lib/armv7-m\libc.a(lib_a-fini.o)
 .ARM.attributes
                0x00000bd7       0x2d c:/users/moseichuk/appdata/local/arduino15/packages/arduino/tools/arm-none-eabi-gcc/4.8.3-2014q1/bin/../lib/gcc/arm-none-eabi/4.8.3/../../../../arm-none-eabi/lib/armv7-m\libc.a(lib_a-__atexit.o)
 .ARM.attributes
                0x00000c04       0x2d c:/users/moseichuk/appdata/local/arduino15/packages/arduino/tools/arm-none-eabi-gcc/4.8.3-2014q1/bin/../lib/gcc/arm-none-eabi/4.8.3/armv7-m/crtend.o
 .ARM.attributes
                0x00000c31       0x1d c:/users/moseichuk/appdata/local/arduino15/packages/arduino/tools/arm-none-eabi-gcc/4.8.3-2014q1/bin/../lib/gcc/arm-none-eabi/4.8.3/armv7-m/crtn.o

/DISCARD/
 *(.note.GNU-stack)
OUTPUT(C:\Users\moseichuk\AppData\Local\Temp\VMBuilds\TestSerial\Arduino_STM32_genericSTM32F103Z\Release/TestSerial.ino.elf elf32-littlearm)

.debug_ranges   0x00000000     0x1940
 .debug_ranges  0x00000000       0x18 C:\Users\moseichuk\AppData\Local\Temp\VMBuilds\TestSerial\Arduino_STM32_genericSTM32F103Z\Release\TestSerial.cpp.o
 .debug_ranges  0x00000018       0x30 C:\Users\moseichuk\AppData\Local\Temp\VMBuilds\TestSerial\Arduino_STM32_genericSTM32F103Z\Release\variant\board.cpp.o
 .debug_ranges  0x00000048      0x160 C:\Users\moseichuk\AppData\Local\Temp\VMBuilds\TestSerial\Arduino_STM32_genericSTM32F103Z\Release\variant\boards.cpp.o
 .debug_ranges  0x000001a8       0x48 C:\Users\moseichuk\AppData\Local\Temp\VMBuilds\TestSerial\Arduino_STM32_genericSTM32F103Z\Release\variant\boards_setup.cpp.o
 .debug_ranges  0x000001f0       0x10 C:\Users\moseichuk\AppData\Local\Temp\VMBuilds\TestSerial\Arduino_STM32_genericSTM32F103Z\Release\variant\start_c.c.o
 .debug_ranges  0x00000200       0x78 C:\Users\moseichuk\AppData\Local\Temp\VMBuilds\TestSerial\Arduino_STM32_genericSTM32F103Z\Release\variant\syscalls.c.o
 .debug_ranges  0x00000278       0x28 C:\Users\moseichuk\AppData\Local\Temp\VMBuilds\TestSerial\Arduino_STM32_genericSTM32F103Z\Release\core.a(adc.c.o)
 .debug_ranges  0x000002a0       0xc0 C:\Users\moseichuk\AppData\Local\Temp\VMBuilds\TestSerial\Arduino_STM32_genericSTM32F103Z\Release\core.a(adc_f1.c.o)
 .debug_ranges  0x00000360      0x1d8 C:\Users\moseichuk\AppData\Local\Temp\VMBuilds\TestSerial\Arduino_STM32_genericSTM32F103Z\Release\core.a(dma_f1.c.o)
 .debug_ranges  0x00000538      0x150 C:\Users\moseichuk\AppData\Local\Temp\VMBuilds\TestSerial\Arduino_STM32_genericSTM32F103Z\Release\core.a(exti.c.o)
 .debug_ranges  0x00000688       0x10 C:\Users\moseichuk\AppData\Local\Temp\VMBuilds\TestSerial\Arduino_STM32_genericSTM32F103Z\Release\core.a(exti_f1.c.o)
 .debug_ranges  0x00000698       0x10 C:\Users\moseichuk\AppData\Local\Temp\VMBuilds\TestSerial\Arduino_STM32_genericSTM32F103Z\Release\core.a(flash.c.o)
 .debug_ranges  0x000006a8       0x30 C:\Users\moseichuk\AppData\Local\Temp\VMBuilds\TestSerial\Arduino_STM32_genericSTM32F103Z\Release\core.a(gpio_f1.c.o)
 .debug_ranges  0x000006d8       0x90 C:\Users\moseichuk\AppData\Local\Temp\VMBuilds\TestSerial\Arduino_STM32_genericSTM32F103Z\Release\core.a(i2c_f1.c.o)
 .debug_ranges  0x00000768       0x40 C:\Users\moseichuk\AppData\Local\Temp\VMBuilds\TestSerial\Arduino_STM32_genericSTM32F103Z\Release\core.a(nvic.c.o)
 .debug_ranges  0x000007a8       0x98 C:\Users\moseichuk\AppData\Local\Temp\VMBuilds\TestSerial\Arduino_STM32_genericSTM32F103Z\Release\core.a(rcc.c.o)
 .debug_ranges  0x00000840       0xc8 C:\Users\moseichuk\AppData\Local\Temp\VMBuilds\TestSerial\Arduino_STM32_genericSTM32F103Z\Release\core.a(rcc_f1.c.o)
 .debug_ranges  0x00000908       0x48 C:\Users\moseichuk\AppData\Local\Temp\VMBuilds\TestSerial\Arduino_STM32_genericSTM32F103Z\Release\core.a(systick.c.o)
 .debug_ranges  0x00000950      0x170 C:\Users\moseichuk\AppData\Local\Temp\VMBuilds\TestSerial\Arduino_STM32_genericSTM32F103Z\Release\core.a(timer.c.o)
 .debug_ranges  0x00000ac0       0x78 C:\Users\moseichuk\AppData\Local\Temp\VMBuilds\TestSerial\Arduino_STM32_genericSTM32F103Z\Release\core.a(usart_f1.c.o)
 .debug_ranges  0x00000b38       0x10 C:\Users\moseichuk\AppData\Local\Temp\VMBuilds\TestSerial\Arduino_STM32_genericSTM32F103Z\Release\core.a(usart_private.c.o)
 .debug_ranges  0x00000b48       0x58 C:\Users\moseichuk\AppData\Local\Temp\VMBuilds\TestSerial\Arduino_STM32_genericSTM32F103Z\Release\core.a(util.c.o)
 .debug_ranges  0x00000ba0       0xa8 C:\Users\moseichuk\AppData\Local\Temp\VMBuilds\TestSerial\Arduino_STM32_genericSTM32F103Z\Release\core.a(usb.c.o)
 .debug_ranges  0x00000c48      0x230 C:\Users\moseichuk\AppData\Local\Temp\VMBuilds\TestSerial\Arduino_STM32_genericSTM32F103Z\Release\core.a(usb_cdcacm.c.o)
 .debug_ranges  0x00000e78       0x60 C:\Users\moseichuk\AppData\Local\Temp\VMBuilds\TestSerial\Arduino_STM32_genericSTM32F103Z\Release\core.a(usb_reg_map.c.o)
 .debug_ranges  0x00000ed8       0xc0 C:\Users\moseichuk\AppData\Local\Temp\VMBuilds\TestSerial\Arduino_STM32_genericSTM32F103Z\Release\core.a(usb_core.c.o)
 .debug_ranges  0x00000f98       0x10 C:\Users\moseichuk\AppData\Local\Temp\VMBuilds\TestSerial\Arduino_STM32_genericSTM32F103Z\Release\core.a(usb_init.c.o)
 .debug_ranges  0x00000fa8       0x18 C:\Users\moseichuk\AppData\Local\Temp\VMBuilds\TestSerial\Arduino_STM32_genericSTM32F103Z\Release\core.a(usb_mem.c.o)
 .debug_ranges  0x00000fc0      0x290 C:\Users\moseichuk\AppData\Local\Temp\VMBuilds\TestSerial\Arduino_STM32_genericSTM32F103Z\Release\core.a(usb_regs.c.o)
 .debug_ranges  0x00001250       0x88 C:\Users\moseichuk\AppData\Local\Temp\VMBuilds\TestSerial\Arduino_STM32_genericSTM32F103Z\Release\core.a(HardwareSerial.cpp.o)
 .debug_ranges  0x000012d8       0x18 C:\Users\moseichuk\AppData\Local\Temp\VMBuilds\TestSerial\Arduino_STM32_genericSTM32F103Z\Release\core.a(main.cpp.o)
 .debug_ranges  0x000012f0      0x230 C:\Users\moseichuk\AppData\Local\Temp\VMBuilds\TestSerial\Arduino_STM32_genericSTM32F103Z\Release\core.a(Print.cpp.o)
 .debug_ranges  0x00001520      0x138 C:\Users\moseichuk\AppData\Local\Temp\VMBuilds\TestSerial\Arduino_STM32_genericSTM32F103Z\Release\core.a(usb_serial.cpp.o)
 .debug_ranges  0x00001658       0x38 C:\Users\moseichuk\AppData\Local\Temp\VMBuilds\TestSerial\Arduino_STM32_genericSTM32F103Z\Release\core.a(bkp_f1.c.o)
 .debug_ranges  0x00001690       0x18 C:\Users\moseichuk\AppData\Local\Temp\VMBuilds\TestSerial\Arduino_STM32_genericSTM32F103Z\Release\core.a(dma.c.o)
 .debug_ranges  0x000016a8       0x10 C:\Users\moseichuk\AppData\Local\Temp\VMBuilds\TestSerial\Arduino_STM32_genericSTM32F103Z\Release\core.a(gpio.c.o)
 .debug_ranges  0x000016b8      0x1a8 C:\Users\moseichuk\AppData\Local\Temp\VMBuilds\TestSerial\Arduino_STM32_genericSTM32F103Z\Release\core.a(i2c.c.o)
 .debug_ranges  0x00001860       0xd0 C:\Users\moseichuk\AppData\Local\Temp\VMBuilds\TestSerial\Arduino_STM32_genericSTM32F103Z\Release\core.a(usart.c.o)
 .debug_ranges  0x00001930       0x10 C:\Users\moseichuk\AppData\Local\Temp\VMBuilds\TestSerial\Arduino_STM32_genericSTM32F103Z\Release\core.a(cxxabi-compat.cpp.o)

.comment        0x00000000       0x70
 .comment       0x00000000       0x70 C:\Users\moseichuk\AppData\Local\Temp\VMBuilds\TestSerial\Arduino_STM32_genericSTM32F103Z\Release\TestSerial.cpp.o
                                 0x71 (size before relaxing)
 .comment       0x00000000       0x71 C:\Users\moseichuk\AppData\Local\Temp\VMBuilds\TestSerial\Arduino_STM32_genericSTM32F103Z\Release\variant\board.cpp.o
 .comment       0x00000000       0x71 C:\Users\moseichuk\AppData\Local\Temp\VMBuilds\TestSerial\Arduino_STM32_genericSTM32F103Z\Release\variant\boards.cpp.o
 .comment       0x00000000       0x71 C:\Users\moseichuk\AppData\Local\Temp\VMBuilds\TestSerial\Arduino_STM32_genericSTM32F103Z\Release\variant\boards_setup.cpp.o
 .comment       0x00000000       0x71 C:\Users\moseichuk\AppData\Local\Temp\VMBuilds\TestSerial\Arduino_STM32_genericSTM32F103Z\Release\variant\start_c.c.o
 .comment       0x00000000       0x71 C:\Users\moseichuk\AppData\Local\Temp\VMBuilds\TestSerial\Arduino_STM32_genericSTM32F103Z\Release\variant\syscalls.c.o
 .comment       0x00000000       0x71 C:\Users\moseichuk\AppData\Local\Temp\VMBuilds\TestSerial\Arduino_STM32_genericSTM32F103Z\Release\core.a(adc.c.o)
 .comment       0x00000000       0x71 C:\Users\moseichuk\AppData\Local\Temp\VMBuilds\TestSerial\Arduino_STM32_genericSTM32F103Z\Release\core.a(adc_f1.c.o)
 .comment       0x00000000       0x71 C:\Users\moseichuk\AppData\Local\Temp\VMBuilds\TestSerial\Arduino_STM32_genericSTM32F103Z\Release\core.a(dma_f1.c.o)
 .comment       0x00000000       0x71 C:\Users\moseichuk\AppData\Local\Temp\VMBuilds\TestSerial\Arduino_STM32_genericSTM32F103Z\Release\core.a(exti.c.o)
 .comment       0x00000000       0x71 C:\Users\moseichuk\AppData\Local\Temp\VMBuilds\TestSerial\Arduino_STM32_genericSTM32F103Z\Release\core.a(exti_f1.c.o)
 .comment       0x00000000       0x71 C:\Users\moseichuk\AppData\Local\Temp\VMBuilds\TestSerial\Arduino_STM32_genericSTM32F103Z\Release\core.a(flash.c.o)
 .comment       0x00000000       0x71 C:\Users\moseichuk\AppData\Local\Temp\VMBuilds\TestSerial\Arduino_STM32_genericSTM32F103Z\Release\core.a(gpio_f1.c.o)
 .comment       0x00000000       0x71 C:\Users\moseichuk\AppData\Local\Temp\VMBuilds\TestSerial\Arduino_STM32_genericSTM32F103Z\Release\core.a(i2c_f1.c.o)
 .comment       0x00000000       0x71 C:\Users\moseichuk\AppData\Local\Temp\VMBuilds\TestSerial\Arduino_STM32_genericSTM32F103Z\Release\core.a(nvic.c.o)
 .comment       0x00000000       0x71 C:\Users\moseichuk\AppData\Local\Temp\VMBuilds\TestSerial\Arduino_STM32_genericSTM32F103Z\Release\core.a(rcc.c.o)
 .comment       0x00000000       0x71 C:\Users\moseichuk\AppData\Local\Temp\VMBuilds\TestSerial\Arduino_STM32_genericSTM32F103Z\Release\core.a(rcc_f1.c.o)
 .comment       0x00000000       0x71 C:\Users\moseichuk\AppData\Local\Temp\VMBuilds\TestSerial\Arduino_STM32_genericSTM32F103Z\Release\core.a(systick.c.o)
 .comment       0x00000000       0x71 C:\Users\moseichuk\AppData\Local\Temp\VMBuilds\TestSerial\Arduino_STM32_genericSTM32F103Z\Release\core.a(timer.c.o)
 .comment       0x00000000       0x71 C:\Users\moseichuk\AppData\Local\Temp\VMBuilds\TestSerial\Arduino_STM32_genericSTM32F103Z\Release\core.a(usart_f1.c.o)
 .comment       0x00000000       0x71 C:\Users\moseichuk\AppData\Local\Temp\VMBuilds\TestSerial\Arduino_STM32_genericSTM32F103Z\Release\core.a(usart_private.c.o)
 .comment       0x00000000       0x71 C:\Users\moseichuk\AppData\Local\Temp\VMBuilds\TestSerial\Arduino_STM32_genericSTM32F103Z\Release\core.a(util.c.o)
 .comment       0x00000000       0x71 C:\Users\moseichuk\AppData\Local\Temp\VMBuilds\TestSerial\Arduino_STM32_genericSTM32F103Z\Release\core.a(usb.c.o)
 .comment       0x00000000       0x71 C:\Users\moseichuk\AppData\Local\Temp\VMBuilds\TestSerial\Arduino_STM32_genericSTM32F103Z\Release\core.a(usb_cdcacm.c.o)
 .comment       0x00000000       0x71 C:\Users\moseichuk\AppData\Local\Temp\VMBuilds\TestSerial\Arduino_STM32_genericSTM32F103Z\Release\core.a(usb_reg_map.c.o)
 .comment       0x00000000       0x71 C:\Users\moseichuk\AppData\Local\Temp\VMBuilds\TestSerial\Arduino_STM32_genericSTM32F103Z\Release\core.a(usb_core.c.o)
 .comment       0x00000000       0x71 C:\Users\moseichuk\AppData\Local\Temp\VMBuilds\TestSerial\Arduino_STM32_genericSTM32F103Z\Release\core.a(usb_init.c.o)
 .comment       0x00000000       0x71 C:\Users\moseichuk\AppData\Local\Temp\VMBuilds\TestSerial\Arduino_STM32_genericSTM32F103Z\Release\core.a(usb_mem.c.o)
 .comment       0x00000000       0x71 C:\Users\moseichuk\AppData\Local\Temp\VMBuilds\TestSerial\Arduino_STM32_genericSTM32F103Z\Release\core.a(usb_regs.c.o)
 .comment       0x00000000       0x71 C:\Users\moseichuk\AppData\Local\Temp\VMBuilds\TestSerial\Arduino_STM32_genericSTM32F103Z\Release\core.a(HardwareSerial.cpp.o)
 .comment       0x00000000       0x71 C:\Users\moseichuk\AppData\Local\Temp\VMBuilds\TestSerial\Arduino_STM32_genericSTM32F103Z\Release\core.a(main.cpp.o)
 .comment       0x00000000       0x71 C:\Users\moseichuk\AppData\Local\Temp\VMBuilds\TestSerial\Arduino_STM32_genericSTM32F103Z\Release\core.a(Print.cpp.o)
 .comment       0x00000000       0x71 C:\Users\moseichuk\AppData\Local\Temp\VMBuilds\TestSerial\Arduino_STM32_genericSTM32F103Z\Release\core.a(usb_serial.cpp.o)
 .comment       0x00000000       0x71 C:\Users\moseichuk\AppData\Local\Temp\VMBuilds\TestSerial\Arduino_STM32_genericSTM32F103Z\Release\core.a(bkp_f1.c.o)
 .comment       0x00000000       0x71 C:\Users\moseichuk\AppData\Local\Temp\VMBuilds\TestSerial\Arduino_STM32_genericSTM32F103Z\Release\core.a(dma.c.o)
 .comment       0x00000000       0x71 C:\Users\moseichuk\AppData\Local\Temp\VMBuilds\TestSerial\Arduino_STM32_genericSTM32F103Z\Release\core.a(gpio.c.o)
 .comment       0x00000000       0x71 C:\Users\moseichuk\AppData\Local\Temp\VMBuilds\TestSerial\Arduino_STM32_genericSTM32F103Z\Release\core.a(i2c.c.o)
 .comment       0x00000000       0x71 C:\Users\moseichuk\AppData\Local\Temp\VMBuilds\TestSerial\Arduino_STM32_genericSTM32F103Z\Release\core.a(usart.c.o)
 .comment       0x00000000       0x71 C:\Users\moseichuk\AppData\Local\Temp\VMBuilds\TestSerial\Arduino_STM32_genericSTM32F103Z\Release\core.a(cxxabi-compat.cpp.o)

Cross Reference Table

Symbol                                            File
ADC1                                              C:\Users\moseichuk\AppData\Local\Temp\VMBuilds\TestSerial\Arduino_STM32_genericSTM32F103Z\Release\core.a(adc_f1.c.o)
ADC2                                              C:\Users\moseichuk\AppData\Local\Temp\VMBuilds\TestSerial\Arduino_STM32_genericSTM32F103Z\Release\core.a(adc_f1.c.o)
ADC3                                              C:\Users\moseichuk\AppData\Local\Temp\VMBuilds\TestSerial\Arduino_STM32_genericSTM32F103Z\Release\core.a(adc_f1.c.o)
BKP                                               C:\Users\moseichuk\AppData\Local\Temp\VMBuilds\TestSerial\Arduino_STM32_genericSTM32F103Z\Release\core.a(bkp_f1.c.o)
ByteSwap                                          C:\Users\moseichuk\AppData\Local\Temp\VMBuilds\TestSerial\Arduino_STM32_genericSTM32F103Z\Release\core.a(usb_regs.c.o)
ClearDTOG_RX                                      C:\Users\moseichuk\AppData\Local\Temp\VMBuilds\TestSerial\Arduino_STM32_genericSTM32F103Z\Release\core.a(usb_regs.c.o)
                                                  C:\Users\moseichuk\AppData\Local\Temp\VMBuilds\TestSerial\Arduino_STM32_genericSTM32F103Z\Release\core.a(usb_core.c.o)
ClearDTOG_TX                                      C:\Users\moseichuk\AppData\Local\Temp\VMBuilds\TestSerial\Arduino_STM32_genericSTM32F103Z\Release\core.a(usb_regs.c.o)
                                                  C:\Users\moseichuk\AppData\Local\Temp\VMBuilds\TestSerial\Arduino_STM32_genericSTM32F103Z\Release\core.a(usb_core.c.o)
ClearEPDoubleBuff                                 C:\Users\moseichuk\AppData\Local\Temp\VMBuilds\TestSerial\Arduino_STM32_genericSTM32F103Z\Release\core.a(usb_regs.c.o)
ClearEP_CTR_RX                                    C:\Users\moseichuk\AppData\Local\Temp\VMBuilds\TestSerial\Arduino_STM32_genericSTM32F103Z\Release\core.a(usb_regs.c.o)
ClearEP_CTR_TX                                    C:\Users\moseichuk\AppData\Local\Temp\VMBuilds\TestSerial\Arduino_STM32_genericSTM32F103Z\Release\core.a(usb_regs.c.o)
ClearEP_KIND                                      C:\Users\moseichuk\AppData\Local\Temp\VMBuilds\TestSerial\Arduino_STM32_genericSTM32F103Z\Release\core.a(usb_regs.c.o)
Clear_Status_Out                                  C:\Users\moseichuk\AppData\Local\Temp\VMBuilds\TestSerial\Arduino_STM32_genericSTM32F103Z\Release\core.a(usb_regs.c.o)
DMA1                                              C:\Users\moseichuk\AppData\Local\Temp\VMBuilds\TestSerial\Arduino_STM32_genericSTM32F103Z\Release\core.a(dma_f1.c.o)
DMA2                                              C:\Users\moseichuk\AppData\Local\Temp\VMBuilds\TestSerial\Arduino_STM32_genericSTM32F103Z\Release\core.a(dma_f1.c.o)
Data_Mul_MaxPacketSize                            C:\Users\moseichuk\AppData\Local\Temp\VMBuilds\TestSerial\Arduino_STM32_genericSTM32F103Z\Release\core.a(usb_core.c.o)
Device_Info                                       C:\Users\moseichuk\AppData\Local\Temp\VMBuilds\TestSerial\Arduino_STM32_genericSTM32F103Z\Release\core.a(usb_init.c.o)
                                                  C:\Users\moseichuk\AppData\Local\Temp\VMBuilds\TestSerial\Arduino_STM32_genericSTM32F103Z\Release\core.a(usb.c.o)
Device_Property                                   C:\Users\moseichuk\AppData\Local\Temp\VMBuilds\TestSerial\Arduino_STM32_genericSTM32F103Z\Release\core.a(usb_cdcacm.c.o)
                                                  C:\Users\moseichuk\AppData\Local\Temp\VMBuilds\TestSerial\Arduino_STM32_genericSTM32F103Z\Release\core.a(usb_init.c.o)
                                                  C:\Users\moseichuk\AppData\Local\Temp\VMBuilds\TestSerial\Arduino_STM32_genericSTM32F103Z\Release\core.a(usb_core.c.o)
                                                  C:\Users\moseichuk\AppData\Local\Temp\VMBuilds\TestSerial\Arduino_STM32_genericSTM32F103Z\Release\core.a(usb.c.o)
Device_Table                                      C:\Users\moseichuk\AppData\Local\Temp\VMBuilds\TestSerial\Arduino_STM32_genericSTM32F103Z\Release\core.a(usb_cdcacm.c.o)
                                                  C:\Users\moseichuk\AppData\Local\Temp\VMBuilds\TestSerial\Arduino_STM32_genericSTM32F103Z\Release\core.a(usb_core.c.o)
EPindex                                           C:\Users\moseichuk\AppData\Local\Temp\VMBuilds\TestSerial\Arduino_STM32_genericSTM32F103Z\Release\core.a(usb_init.c.o)
FreeUserBuffer                                    C:\Users\moseichuk\AppData\Local\Temp\VMBuilds\TestSerial\Arduino_STM32_genericSTM32F103Z\Release\core.a(usb_regs.c.o)
GPIOA                                             C:\Users\moseichuk\AppData\Local\Temp\VMBuilds\TestSerial\Arduino_STM32_genericSTM32F103Z\Release\core.a(gpio_f1.c.o)
GPIOB                                             C:\Users\moseichuk\AppData\Local\Temp\VMBuilds\TestSerial\Arduino_STM32_genericSTM32F103Z\Release\core.a(gpio_f1.c.o)
                                                  C:\Users\moseichuk\AppData\Local\Temp\VMBuilds\TestSerial\Arduino_STM32_genericSTM32F103Z\Release\core.a(util.c.o)
GPIOC                                             C:\Users\moseichuk\AppData\Local\Temp\VMBuilds\TestSerial\Arduino_STM32_genericSTM32F103Z\Release\core.a(gpio_f1.c.o)
                                                  C:\Users\moseichuk\AppData\Local\Temp\VMBuilds\TestSerial\Arduino_STM32_genericSTM32F103Z\Release\core.a(usb_serial.cpp.o)
GPIOD                                             C:\Users\moseichuk\AppData\Local\Temp\VMBuilds\TestSerial\Arduino_STM32_genericSTM32F103Z\Release\core.a(gpio_f1.c.o)
GPIOE                                             C:\Users\moseichuk\AppData\Local\Temp\VMBuilds\TestSerial\Arduino_STM32_genericSTM32F103Z\Release\core.a(gpio_f1.c.o)
GPIOF                                             C:\Users\moseichuk\AppData\Local\Temp\VMBuilds\TestSerial\Arduino_STM32_genericSTM32F103Z\Release\core.a(gpio_f1.c.o)
GPIOG                                             C:\Users\moseichuk\AppData\Local\Temp\VMBuilds\TestSerial\Arduino_STM32_genericSTM32F103Z\Release\core.a(gpio_f1.c.o)
GetBTABLE                                         C:\Users\moseichuk\AppData\Local\Temp\VMBuilds\TestSerial\Arduino_STM32_genericSTM32F103Z\Release\core.a(usb_regs.c.o)
GetCNTR                                           C:\Users\moseichuk\AppData\Local\Temp\VMBuilds\TestSerial\Arduino_STM32_genericSTM32F103Z\Release\core.a(usb_regs.c.o)
GetDADDR                                          C:\Users\moseichuk\AppData\Local\Temp\VMBuilds\TestSerial\Arduino_STM32_genericSTM32F103Z\Release\core.a(usb_regs.c.o)
GetENDPOINT                                       C:\Users\moseichuk\AppData\Local\Temp\VMBuilds\TestSerial\Arduino_STM32_genericSTM32F103Z\Release\core.a(usb_regs.c.o)
GetEPAddress                                      C:\Users\moseichuk\AppData\Local\Temp\VMBuilds\TestSerial\Arduino_STM32_genericSTM32F103Z\Release\core.a(usb_regs.c.o)
GetEPDblBuf0Addr                                  C:\Users\moseichuk\AppData\Local\Temp\VMBuilds\TestSerial\Arduino_STM32_genericSTM32F103Z\Release\core.a(usb_regs.c.o)
GetEPDblBuf0Count                                 C:\Users\moseichuk\AppData\Local\Temp\VMBuilds\TestSerial\Arduino_STM32_genericSTM32F103Z\Release\core.a(usb_regs.c.o)
GetEPDblBuf1Addr                                  C:\Users\moseichuk\AppData\Local\Temp\VMBuilds\TestSerial\Arduino_STM32_genericSTM32F103Z\Release\core.a(usb_regs.c.o)
GetEPDblBuf1Count                                 C:\Users\moseichuk\AppData\Local\Temp\VMBuilds\TestSerial\Arduino_STM32_genericSTM32F103Z\Release\core.a(usb_regs.c.o)
GetEPDblBufDir                                    C:\Users\moseichuk\AppData\Local\Temp\VMBuilds\TestSerial\Arduino_STM32_genericSTM32F103Z\Release\core.a(usb_regs.c.o)
GetEPRxAddr                                       C:\Users\moseichuk\AppData\Local\Temp\VMBuilds\TestSerial\Arduino_STM32_genericSTM32F103Z\Release\core.a(usb_regs.c.o)
                                                  C:\Users\moseichuk\AppData\Local\Temp\VMBuilds\TestSerial\Arduino_STM32_genericSTM32F103Z\Release\core.a(usb_core.c.o)
GetEPRxCount                                      C:\Users\moseichuk\AppData\Local\Temp\VMBuilds\TestSerial\Arduino_STM32_genericSTM32F103Z\Release\core.a(usb_regs.c.o)
GetEPRxStatus                                     C:\Users\moseichuk\AppData\Local\Temp\VMBuilds\TestSerial\Arduino_STM32_genericSTM32F103Z\Release\core.a(usb_regs.c.o)
GetEPTxAddr                                       C:\Users\moseichuk\AppData\Local\Temp\VMBuilds\TestSerial\Arduino_STM32_genericSTM32F103Z\Release\core.a(usb_regs.c.o)
                                                  C:\Users\moseichuk\AppData\Local\Temp\VMBuilds\TestSerial\Arduino_STM32_genericSTM32F103Z\Release\core.a(usb_core.c.o)
GetEPTxCount                                      C:\Users\moseichuk\AppData\Local\Temp\VMBuilds\TestSerial\Arduino_STM32_genericSTM32F103Z\Release\core.a(usb_regs.c.o)
GetEPTxStatus                                     C:\Users\moseichuk\AppData\Local\Temp\VMBuilds\TestSerial\Arduino_STM32_genericSTM32F103Z\Release\core.a(usb_regs.c.o)
GetEPType                                         C:\Users\moseichuk\AppData\Local\Temp\VMBuilds\TestSerial\Arduino_STM32_genericSTM32F103Z\Release\core.a(usb_regs.c.o)
GetFNR                                            C:\Users\moseichuk\AppData\Local\Temp\VMBuilds\TestSerial\Arduino_STM32_genericSTM32F103Z\Release\core.a(usb_regs.c.o)
GetISTR                                           C:\Users\moseichuk\AppData\Local\Temp\VMBuilds\TestSerial\Arduino_STM32_genericSTM32F103Z\Release\core.a(usb_regs.c.o)
GetRxStallStatus                                  C:\Users\moseichuk\AppData\Local\Temp\VMBuilds\TestSerial\Arduino_STM32_genericSTM32F103Z\Release\core.a(usb_regs.c.o)
GetTxStallStatus                                  C:\Users\moseichuk\AppData\Local\Temp\VMBuilds\TestSerial\Arduino_STM32_genericSTM32F103Z\Release\core.a(usb_regs.c.o)
HardwareSerial::HardwareSerial(usart_dev*, unsigned char, unsigned char) C:\Users\moseichuk\AppData\Local\Temp\VMBuilds\TestSerial\Arduino_STM32_genericSTM32F103Z\Release\core.a(HardwareSerial.cpp.o)
HardwareSerial::HardwareSerial(usart_dev*, unsigned char, unsigned char) C:\Users\moseichuk\AppData\Local\Temp\VMBuilds\TestSerial\Arduino_STM32_genericSTM32F103Z\Release\core.a(HardwareSerial.cpp.o)
                                                  C:\Users\moseichuk\AppData\Local\Temp\VMBuilds\TestSerial\Arduino_STM32_genericSTM32F103Z\Release\variant\board.cpp.o
HardwareSerial::available()                       C:\Users\moseichuk\AppData\Local\Temp\VMBuilds\TestSerial\Arduino_STM32_genericSTM32F103Z\Release\core.a(HardwareSerial.cpp.o)
HardwareSerial::availableForWrite()               C:\Users\moseichuk\AppData\Local\Temp\VMBuilds\TestSerial\Arduino_STM32_genericSTM32F103Z\Release\core.a(HardwareSerial.cpp.o)
HardwareSerial::begin(unsigned long)              C:\Users\moseichuk\AppData\Local\Temp\VMBuilds\TestSerial\Arduino_STM32_genericSTM32F103Z\Release\core.a(HardwareSerial.cpp.o)
HardwareSerial::begin(unsigned long, unsigned char) C:\Users\moseichuk\AppData\Local\Temp\VMBuilds\TestSerial\Arduino_STM32_genericSTM32F103Z\Release\core.a(HardwareSerial.cpp.o)
HardwareSerial::end()                             C:\Users\moseichuk\AppData\Local\Temp\VMBuilds\TestSerial\Arduino_STM32_genericSTM32F103Z\Release\core.a(HardwareSerial.cpp.o)
HardwareSerial::flush()                           C:\Users\moseichuk\AppData\Local\Temp\VMBuilds\TestSerial\Arduino_STM32_genericSTM32F103Z\Release\core.a(HardwareSerial.cpp.o)
HardwareSerial::peek()                            C:\Users\moseichuk\AppData\Local\Temp\VMBuilds\TestSerial\Arduino_STM32_genericSTM32F103Z\Release\core.a(HardwareSerial.cpp.o)
HardwareSerial::read()                            C:\Users\moseichuk\AppData\Local\Temp\VMBuilds\TestSerial\Arduino_STM32_genericSTM32F103Z\Release\core.a(HardwareSerial.cpp.o)
HardwareSerial::write(unsigned char)              C:\Users\moseichuk\AppData\Local\Temp\VMBuilds\TestSerial\Arduino_STM32_genericSTM32F103Z\Release\core.a(HardwareSerial.cpp.o)
I2C1                                              C:\Users\moseichuk\AppData\Local\Temp\VMBuilds\TestSerial\Arduino_STM32_genericSTM32F103Z\Release\core.a(i2c_f1.c.o)
                                                  C:\Users\moseichuk\AppData\Local\Temp\VMBuilds\TestSerial\Arduino_STM32_genericSTM32F103Z\Release\core.a(i2c.c.o)
I2C2                                              C:\Users\moseichuk\AppData\Local\Temp\VMBuilds\TestSerial\Arduino_STM32_genericSTM32F103Z\Release\core.a(i2c_f1.c.o)
In0_Process                                       C:\Users\moseichuk\AppData\Local\Temp\VMBuilds\TestSerial\Arduino_STM32_genericSTM32F103Z\Release\core.a(usb_core.c.o)
                                                  C:\Users\moseichuk\AppData\Local\Temp\VMBuilds\TestSerial\Arduino_STM32_genericSTM32F103Z\Release\core.a(usb.c.o)
NOP_Process                                       C:\Users\moseichuk\AppData\Local\Temp\VMBuilds\TestSerial\Arduino_STM32_genericSTM32F103Z\Release\core.a(usb_core.c.o)
                                                  C:\Users\moseichuk\AppData\Local\Temp\VMBuilds\TestSerial\Arduino_STM32_genericSTM32F103Z\Release\core.a(usb_cdcacm.c.o)
Out0_Process                                      C:\Users\moseichuk\AppData\Local\Temp\VMBuilds\TestSerial\Arduino_STM32_genericSTM32F103Z\Release\core.a(usb_core.c.o)
                                                  C:\Users\moseichuk\AppData\Local\Temp\VMBuilds\TestSerial\Arduino_STM32_genericSTM32F103Z\Release\core.a(usb.c.o)
PIN_MAP                                           C:\Users\moseichuk\AppData\Local\Temp\VMBuilds\TestSerial\Arduino_STM32_genericSTM32F103Z\Release\variant\board.cpp.o
                                                  C:\Users\moseichuk\AppData\Local\Temp\VMBuilds\TestSerial\Arduino_STM32_genericSTM32F103Z\Release\core.a(HardwareSerial.cpp.o)
                                                  C:\Users\moseichuk\AppData\Local\Temp\VMBuilds\TestSerial\Arduino_STM32_genericSTM32F103Z\Release\variant\boards_setup.cpp.o
PMAToUserBufferCopy                               C:\Users\moseichuk\AppData\Local\Temp\VMBuilds\TestSerial\Arduino_STM32_genericSTM32F103Z\Release\core.a(usb_mem.c.o)
                                                  C:\Users\moseichuk\AppData\Local\Temp\VMBuilds\TestSerial\Arduino_STM32_genericSTM32F103Z\Release\core.a(usb_core.c.o)
Post0_Process                                     C:\Users\moseichuk\AppData\Local\Temp\VMBuilds\TestSerial\Arduino_STM32_genericSTM32F103Z\Release\core.a(usb_core.c.o)
Print::print(Printable const&)                    C:\Users\moseichuk\AppData\Local\Temp\VMBuilds\TestSerial\Arduino_STM32_genericSTM32F103Z\Release\core.a(Print.cpp.o)
Print::print(String const&)                       C:\Users\moseichuk\AppData\Local\Temp\VMBuilds\TestSerial\Arduino_STM32_genericSTM32F103Z\Release\core.a(Print.cpp.o)
Print::print(__FlashStringHelper const*)          C:\Users\moseichuk\AppData\Local\Temp\VMBuilds\TestSerial\Arduino_STM32_genericSTM32F103Z\Release\core.a(Print.cpp.o)
Print::print(char const*)                         C:\Users\moseichuk\AppData\Local\Temp\VMBuilds\TestSerial\Arduino_STM32_genericSTM32F103Z\Release\core.a(Print.cpp.o)
                                                  C:\Users\moseichuk\AppData\Local\Temp\VMBuilds\TestSerial\Arduino_STM32_genericSTM32F103Z\Release\TestSerial.cpp.o
Print::print(char)                                C:\Users\moseichuk\AppData\Local\Temp\VMBuilds\TestSerial\Arduino_STM32_genericSTM32F103Z\Release\core.a(Print.cpp.o)
Print::print(double, int)                         C:\Users\moseichuk\AppData\Local\Temp\VMBuilds\TestSerial\Arduino_STM32_genericSTM32F103Z\Release\core.a(Print.cpp.o)
Print::print(int, int)                            C:\Users\moseichuk\AppData\Local\Temp\VMBuilds\TestSerial\Arduino_STM32_genericSTM32F103Z\Release\core.a(Print.cpp.o)
                                                  C:\Users\moseichuk\AppData\Local\Temp\VMBuilds\TestSerial\Arduino_STM32_genericSTM32F103Z\Release\TestSerial.cpp.o
Print::print(long long, int)                      C:\Users\moseichuk\AppData\Local\Temp\VMBuilds\TestSerial\Arduino_STM32_genericSTM32F103Z\Release\core.a(Print.cpp.o)
Print::print(long, int)                           C:\Users\moseichuk\AppData\Local\Temp\VMBuilds\TestSerial\Arduino_STM32_genericSTM32F103Z\Release\core.a(Print.cpp.o)
Print::print(unsigned char, int)                  C:\Users\moseichuk\AppData\Local\Temp\VMBuilds\TestSerial\Arduino_STM32_genericSTM32F103Z\Release\core.a(Print.cpp.o)
Print::print(unsigned int, int)                   C:\Users\moseichuk\AppData\Local\Temp\VMBuilds\TestSerial\Arduino_STM32_genericSTM32F103Z\Release\core.a(Print.cpp.o)
Print::print(unsigned long long, int)             C:\Users\moseichuk\AppData\Local\Temp\VMBuilds\TestSerial\Arduino_STM32_genericSTM32F103Z\Release\core.a(Print.cpp.o)
Print::print(unsigned long, int)                  C:\Users\moseichuk\AppData\Local\Temp\VMBuilds\TestSerial\Arduino_STM32_genericSTM32F103Z\Release\core.a(Print.cpp.o)
Print::printFloat(double, unsigned char)          C:\Users\moseichuk\AppData\Local\Temp\VMBuilds\TestSerial\Arduino_STM32_genericSTM32F103Z\Release\core.a(Print.cpp.o)
Print::printNumber(unsigned long long, unsigned char) C:\Users\moseichuk\AppData\Local\Temp\VMBuilds\TestSerial\Arduino_STM32_genericSTM32F103Z\Release\core.a(Print.cpp.o)
Print::println()                                  C:\Users\moseichuk\AppData\Local\Temp\VMBuilds\TestSerial\Arduino_STM32_genericSTM32F103Z\Release\core.a(Print.cpp.o)
Print::println(Printable const&)                  C:\Users\moseichuk\AppData\Local\Temp\VMBuilds\TestSerial\Arduino_STM32_genericSTM32F103Z\Release\core.a(Print.cpp.o)
Print::println(String const&)                     C:\Users\moseichuk\AppData\Local\Temp\VMBuilds\TestSerial\Arduino_STM32_genericSTM32F103Z\Release\core.a(Print.cpp.o)
Print::println(__FlashStringHelper const*)        C:\Users\moseichuk\AppData\Local\Temp\VMBuilds\TestSerial\Arduino_STM32_genericSTM32F103Z\Release\core.a(Print.cpp.o)
Print::println(char const*)                       C:\Users\moseichuk\AppData\Local\Temp\VMBuilds\TestSerial\Arduino_STM32_genericSTM32F103Z\Release\core.a(Print.cpp.o)
                                                  C:\Users\moseichuk\AppData\Local\Temp\VMBuilds\TestSerial\Arduino_STM32_genericSTM32F103Z\Release\TestSerial.cpp.o
Print::println(char)                              C:\Users\moseichuk\AppData\Local\Temp\VMBuilds\TestSerial\Arduino_STM32_genericSTM32F103Z\Release\core.a(Print.cpp.o)
Print::println(double, int)                       C:\Users\moseichuk\AppData\Local\Temp\VMBuilds\TestSerial\Arduino_STM32_genericSTM32F103Z\Release\core.a(Print.cpp.o)
Print::println(int, int)                          C:\Users\moseichuk\AppData\Local\Temp\VMBuilds\TestSerial\Arduino_STM32_genericSTM32F103Z\Release\core.a(Print.cpp.o)
                                                  C:\Users\moseichuk\AppData\Local\Temp\VMBuilds\TestSerial\Arduino_STM32_genericSTM32F103Z\Release\TestSerial.cpp.o
Print::println(long long, int)                    C:\Users\moseichuk\AppData\Local\Temp\VMBuilds\TestSerial\Arduino_STM32_genericSTM32F103Z\Release\core.a(Print.cpp.o)
Print::println(long, int)                         C:\Users\moseichuk\AppData\Local\Temp\VMBuilds\TestSerial\Arduino_STM32_genericSTM32F103Z\Release\core.a(Print.cpp.o)
Print::println(unsigned char, int)                C:\Users\moseichuk\AppData\Local\Temp\VMBuilds\TestSerial\Arduino_STM32_genericSTM32F103Z\Release\core.a(Print.cpp.o)
Print::println(unsigned int, int)                 C:\Users\moseichuk\AppData\Local\Temp\VMBuilds\TestSerial\Arduino_STM32_genericSTM32F103Z\Release\core.a(Print.cpp.o)
Print::println(unsigned long long, int)           C:\Users\moseichuk\AppData\Local\Temp\VMBuilds\TestSerial\Arduino_STM32_genericSTM32F103Z\Release\core.a(Print.cpp.o)
Print::println(unsigned long, int)                C:\Users\moseichuk\AppData\Local\Temp\VMBuilds\TestSerial\Arduino_STM32_genericSTM32F103Z\Release\core.a(Print.cpp.o)
Print::write(char const*)                         C:\Users\moseichuk\AppData\Local\Temp\VMBuilds\TestSerial\Arduino_STM32_genericSTM32F103Z\Release\core.a(Print.cpp.o)
                                                  C:\Users\moseichuk\AppData\Local\Temp\VMBuilds\TestSerial\Arduino_STM32_genericSTM32F103Z\Release\core.a(usb_serial.cpp.o)
                                                  C:\Users\moseichuk\AppData\Local\Temp\VMBuilds\TestSerial\Arduino_STM32_genericSTM32F103Z\Release\core.a(HardwareSerial.cpp.o)
Print::write(void const*, unsigned long)          C:\Users\moseichuk\AppData\Local\Temp\VMBuilds\TestSerial\Arduino_STM32_genericSTM32F103Z\Release\core.a(Print.cpp.o)
                                                  C:\Users\moseichuk\AppData\Local\Temp\VMBuilds\TestSerial\Arduino_STM32_genericSTM32F103Z\Release\core.a(usb_serial.cpp.o)
                                                  C:\Users\moseichuk\AppData\Local\Temp\VMBuilds\TestSerial\Arduino_STM32_genericSTM32F103Z\Release\core.a(HardwareSerial.cpp.o)
ResumeS                                           C:\Users\moseichuk\AppData\Local\Temp\VMBuilds\TestSerial\Arduino_STM32_genericSTM32F103Z\Release\core.a(usb.c.o)
SaveRState                                        C:\Users\moseichuk\AppData\Local\Temp\VMBuilds\TestSerial\Arduino_STM32_genericSTM32F103Z\Release\core.a(usb_core.c.o)
                                                  C:\Users\moseichuk\AppData\Local\Temp\VMBuilds\TestSerial\Arduino_STM32_genericSTM32F103Z\Release\core.a(usb.c.o)
SaveState                                         C:\Users\moseichuk\AppData\Local\Temp\VMBuilds\TestSerial\Arduino_STM32_genericSTM32F103Z\Release\core.a(usb_init.c.o)
SaveTState                                        C:\Users\moseichuk\AppData\Local\Temp\VMBuilds\TestSerial\Arduino_STM32_genericSTM32F103Z\Release\core.a(usb_core.c.o)
                                                  C:\Users\moseichuk\AppData\Local\Temp\VMBuilds\TestSerial\Arduino_STM32_genericSTM32F103Z\Release\core.a(usb.c.o)
Serial                                            C:\Users\moseichuk\AppData\Local\Temp\VMBuilds\TestSerial\Arduino_STM32_genericSTM32F103Z\Release\core.a(usb_serial.cpp.o)
                                                  C:\Users\moseichuk\AppData\Local\Temp\VMBuilds\TestSerial\Arduino_STM32_genericSTM32F103Z\Release\variant\boards_setup.cpp.o
                                                  C:\Users\moseichuk\AppData\Local\Temp\VMBuilds\TestSerial\Arduino_STM32_genericSTM32F103Z\Release\TestSerial.cpp.o
Serial1                                           C:\Users\moseichuk\AppData\Local\Temp\VMBuilds\TestSerial\Arduino_STM32_genericSTM32F103Z\Release\variant\board.cpp.o
Serial2                                           C:\Users\moseichuk\AppData\Local\Temp\VMBuilds\TestSerial\Arduino_STM32_genericSTM32F103Z\Release\variant\board.cpp.o
Serial3                                           C:\Users\moseichuk\AppData\Local\Temp\VMBuilds\TestSerial\Arduino_STM32_genericSTM32F103Z\Release\variant\board.cpp.o
Serial4                                           C:\Users\moseichuk\AppData\Local\Temp\VMBuilds\TestSerial\Arduino_STM32_genericSTM32F103Z\Release\variant\board.cpp.o
Serial5                                           C:\Users\moseichuk\AppData\Local\Temp\VMBuilds\TestSerial\Arduino_STM32_genericSTM32F103Z\Release\variant\board.cpp.o
SetBTABLE                                         C:\Users\moseichuk\AppData\Local\Temp\VMBuilds\TestSerial\Arduino_STM32_genericSTM32F103Z\Release\core.a(usb_regs.c.o)
SetCNTR                                           C:\Users\moseichuk\AppData\Local\Temp\VMBuilds\TestSerial\Arduino_STM32_genericSTM32F103Z\Release\core.a(usb_regs.c.o)
SetDADDR                                          C:\Users\moseichuk\AppData\Local\Temp\VMBuilds\TestSerial\Arduino_STM32_genericSTM32F103Z\Release\core.a(usb_regs.c.o)
SetDeviceAddress                                  C:\Users\moseichuk\AppData\Local\Temp\VMBuilds\TestSerial\Arduino_STM32_genericSTM32F103Z\Release\core.a(usb_core.c.o)
                                                  C:\Users\moseichuk\AppData\Local\Temp\VMBuilds\TestSerial\Arduino_STM32_genericSTM32F103Z\Release\core.a(usb_cdcacm.c.o)
SetDouBleBuffEPStall                              C:\Users\moseichuk\AppData\Local\Temp\VMBuilds\TestSerial\Arduino_STM32_genericSTM32F103Z\Release\core.a(usb_regs.c.o)
SetENDPOINT                                       C:\Users\moseichuk\AppData\Local\Temp\VMBuilds\TestSerial\Arduino_STM32_genericSTM32F103Z\Release\core.a(usb_regs.c.o)
SetEPAddress                                      C:\Users\moseichuk\AppData\Local\Temp\VMBuilds\TestSerial\Arduino_STM32_genericSTM32F103Z\Release\core.a(usb_regs.c.o)
SetEPCountRxReg                                   C:\Users\moseichuk\AppData\Local\Temp\VMBuilds\TestSerial\Arduino_STM32_genericSTM32F103Z\Release\core.a(usb_regs.c.o)
SetEPDblBuf0Addr                                  C:\Users\moseichuk\AppData\Local\Temp\VMBuilds\TestSerial\Arduino_STM32_genericSTM32F103Z\Release\core.a(usb_regs.c.o)
SetEPDblBuf0Count                                 C:\Users\moseichuk\AppData\Local\Temp\VMBuilds\TestSerial\Arduino_STM32_genericSTM32F103Z\Release\core.a(usb_regs.c.o)
SetEPDblBuf1Addr                                  C:\Users\moseichuk\AppData\Local\Temp\VMBuilds\TestSerial\Arduino_STM32_genericSTM32F103Z\Release\core.a(usb_regs.c.o)
SetEPDblBuf1Count                                 C:\Users\moseichuk\AppData\Local\Temp\VMBuilds\TestSerial\Arduino_STM32_genericSTM32F103Z\Release\core.a(usb_regs.c.o)
SetEPDblBuffAddr                                  C:\Users\moseichuk\AppData\Local\Temp\VMBuilds\TestSerial\Arduino_STM32_genericSTM32F103Z\Release\core.a(usb_regs.c.o)
SetEPDblBuffCount                                 C:\Users\moseichuk\AppData\Local\Temp\VMBuilds\TestSerial\Arduino_STM32_genericSTM32F103Z\Release\core.a(usb_regs.c.o)
SetEPDoubleBuff                                   C:\Users\moseichuk\AppData\Local\Temp\VMBuilds\TestSerial\Arduino_STM32_genericSTM32F103Z\Release\core.a(usb_regs.c.o)
SetEPRxAddr                                       C:\Users\moseichuk\AppData\Local\Temp\VMBuilds\TestSerial\Arduino_STM32_genericSTM32F103Z\Release\core.a(usb_regs.c.o)
SetEPRxCount                                      C:\Users\moseichuk\AppData\Local\Temp\VMBuilds\TestSerial\Arduino_STM32_genericSTM32F103Z\Release\core.a(usb_regs.c.o)
                                                  C:\Users\moseichuk\AppData\Local\Temp\VMBuilds\TestSerial\Arduino_STM32_genericSTM32F103Z\Release\core.a(usb_core.c.o)
SetEPRxStatus                                     C:\Users\moseichuk\AppData\Local\Temp\VMBuilds\TestSerial\Arduino_STM32_genericSTM32F103Z\Release\core.a(usb_regs.c.o)
SetEPRxValid                                      C:\Users\moseichuk\AppData\Local\Temp\VMBuilds\TestSerial\Arduino_STM32_genericSTM32F103Z\Release\core.a(usb_regs.c.o)
SetEPTxAddr                                       C:\Users\moseichuk\AppData\Local\Temp\VMBuilds\TestSerial\Arduino_STM32_genericSTM32F103Z\Release\core.a(usb_regs.c.o)
SetEPTxCount                                      C:\Users\moseichuk\AppData\Local\Temp\VMBuilds\TestSerial\Arduino_STM32_genericSTM32F103Z\Release\core.a(usb_regs.c.o)
                                                  C:\Users\moseichuk\AppData\Local\Temp\VMBuilds\TestSerial\Arduino_STM32_genericSTM32F103Z\Release\core.a(usb_core.c.o)
SetEPTxStatus                                     C:\Users\moseichuk\AppData\Local\Temp\VMBuilds\TestSerial\Arduino_STM32_genericSTM32F103Z\Release\core.a(usb_regs.c.o)
                                                  C:\Users\moseichuk\AppData\Local\Temp\VMBuilds\TestSerial\Arduino_STM32_genericSTM32F103Z\Release\core.a(usb_core.c.o)
SetEPTxValid                                      C:\Users\moseichuk\AppData\Local\Temp\VMBuilds\TestSerial\Arduino_STM32_genericSTM32F103Z\Release\core.a(usb_regs.c.o)
SetEPType                                         C:\Users\moseichuk\AppData\Local\Temp\VMBuilds\TestSerial\Arduino_STM32_genericSTM32F103Z\Release\core.a(usb_regs.c.o)
SetEP_KIND                                        C:\Users\moseichuk\AppData\Local\Temp\VMBuilds\TestSerial\Arduino_STM32_genericSTM32F103Z\Release\core.a(usb_regs.c.o)
SetISTR                                           C:\Users\moseichuk\AppData\Local\Temp\VMBuilds\TestSerial\Arduino_STM32_genericSTM32F103Z\Release\core.a(usb_regs.c.o)
Set_Status_Out                                    C:\Users\moseichuk\AppData\Local\Temp\VMBuilds\TestSerial\Arduino_STM32_genericSTM32F103Z\Release\core.a(usb_regs.c.o)
Setup0_Process                                    C:\Users\moseichuk\AppData\Local\Temp\VMBuilds\TestSerial\Arduino_STM32_genericSTM32F103Z\Release\core.a(usb_core.c.o)
                                                  C:\Users\moseichuk\AppData\Local\Temp\VMBuilds\TestSerial\Arduino_STM32_genericSTM32F103Z\Release\core.a(usb.c.o)
Standard_ClearFeature                             C:\Users\moseichuk\AppData\Local\Temp\VMBuilds\TestSerial\Arduino_STM32_genericSTM32F103Z\Release\core.a(usb_core.c.o)
Standard_GetConfiguration                         C:\Users\moseichuk\AppData\Local\Temp\VMBuilds\TestSerial\Arduino_STM32_genericSTM32F103Z\Release\core.a(usb_core.c.o)
Standard_GetDescriptorData                        C:\Users\moseichuk\AppData\Local\Temp\VMBuilds\TestSerial\Arduino_STM32_genericSTM32F103Z\Release\core.a(usb_core.c.o)
                                                  C:\Users\moseichuk\AppData\Local\Temp\VMBuilds\TestSerial\Arduino_STM32_genericSTM32F103Z\Release\core.a(usb_cdcacm.c.o)
Standard_GetInterface                             C:\Users\moseichuk\AppData\Local\Temp\VMBuilds\TestSerial\Arduino_STM32_genericSTM32F103Z\Release\core.a(usb_core.c.o)
Standard_GetStatus                                C:\Users\moseichuk\AppData\Local\Temp\VMBuilds\TestSerial\Arduino_STM32_genericSTM32F103Z\Release\core.a(usb_core.c.o)
Standard_SetConfiguration                         C:\Users\moseichuk\AppData\Local\Temp\VMBuilds\TestSerial\Arduino_STM32_genericSTM32F103Z\Release\core.a(usb_core.c.o)
Standard_SetDeviceFeature                         C:\Users\moseichuk\AppData\Local\Temp\VMBuilds\TestSerial\Arduino_STM32_genericSTM32F103Z\Release\core.a(usb_core.c.o)
Standard_SetEndPointFeature                       C:\Users\moseichuk\AppData\Local\Temp\VMBuilds\TestSerial\Arduino_STM32_genericSTM32F103Z\Release\core.a(usb_core.c.o)
Standard_SetInterface                             C:\Users\moseichuk\AppData\Local\Temp\VMBuilds\TestSerial\Arduino_STM32_genericSTM32F103Z\Release\core.a(usb_core.c.o)
StatusInfo                                        C:\Users\moseichuk\AppData\Local\Temp\VMBuilds\TestSerial\Arduino_STM32_genericSTM32F103Z\Release\core.a(usb_core.c.o)
TIMER1                                            C:\Users\moseichuk\AppData\Local\Temp\VMBuilds\TestSerial\Arduino_STM32_genericSTM32F103Z\Release\core.a(timer.c.o)
TIMER2                                            C:\Users\moseichuk\AppData\Local\Temp\VMBuilds\TestSerial\Arduino_STM32_genericSTM32F103Z\Release\core.a(timer.c.o)
TIMER3                                            C:\Users\moseichuk\AppData\Local\Temp\VMBuilds\TestSerial\Arduino_STM32_genericSTM32F103Z\Release\core.a(timer.c.o)
TIMER4                                            C:\Users\moseichuk\AppData\Local\Temp\VMBuilds\TestSerial\Arduino_STM32_genericSTM32F103Z\Release\core.a(timer.c.o)
TIMER5                                            C:\Users\moseichuk\AppData\Local\Temp\VMBuilds\TestSerial\Arduino_STM32_genericSTM32F103Z\Release\core.a(timer.c.o)
TIMER6                                            C:\Users\moseichuk\AppData\Local\Temp\VMBuilds\TestSerial\Arduino_STM32_genericSTM32F103Z\Release\core.a(timer.c.o)
TIMER7                                            C:\Users\moseichuk\AppData\Local\Temp\VMBuilds\TestSerial\Arduino_STM32_genericSTM32F103Z\Release\core.a(timer.c.o)
TIMER8                                            C:\Users\moseichuk\AppData\Local\Temp\VMBuilds\TestSerial\Arduino_STM32_genericSTM32F103Z\Release\core.a(timer.c.o)
ToWord                                            C:\Users\moseichuk\AppData\Local\Temp\VMBuilds\TestSerial\Arduino_STM32_genericSTM32F103Z\Release\core.a(usb_regs.c.o)
ToggleDTOG_RX                                     C:\Users\moseichuk\AppData\Local\Temp\VMBuilds\TestSerial\Arduino_STM32_genericSTM32F103Z\Release\core.a(usb_regs.c.o)
ToggleDTOG_TX                                     C:\Users\moseichuk\AppData\Local\Temp\VMBuilds\TestSerial\Arduino_STM32_genericSTM32F103Z\Release\core.a(usb_regs.c.o)
UART4                                             C:\Users\moseichuk\AppData\Local\Temp\VMBuilds\TestSerial\Arduino_STM32_genericSTM32F103Z\Release\core.a(usart_f1.c.o)
                                                  C:\Users\moseichuk\AppData\Local\Temp\VMBuilds\TestSerial\Arduino_STM32_genericSTM32F103Z\Release\variant\board.cpp.o
UART5                                             C:\Users\moseichuk\AppData\Local\Temp\VMBuilds\TestSerial\Arduino_STM32_genericSTM32F103Z\Release\core.a(usart_f1.c.o)
                                                  C:\Users\moseichuk\AppData\Local\Temp\VMBuilds\TestSerial\Arduino_STM32_genericSTM32F103Z\Release\variant\board.cpp.o
USART1                                            C:\Users\moseichuk\AppData\Local\Temp\VMBuilds\TestSerial\Arduino_STM32_genericSTM32F103Z\Release\core.a(usart_f1.c.o)
                                                  C:\Users\moseichuk\AppData\Local\Temp\VMBuilds\TestSerial\Arduino_STM32_genericSTM32F103Z\Release\variant\board.cpp.o
USART2                                            C:\Users\moseichuk\AppData\Local\Temp\VMBuilds\TestSerial\Arduino_STM32_genericSTM32F103Z\Release\core.a(usart_f1.c.o)
                                                  C:\Users\moseichuk\AppData\Local\Temp\VMBuilds\TestSerial\Arduino_STM32_genericSTM32F103Z\Release\variant\board.cpp.o
USART3                                            C:\Users\moseichuk\AppData\Local\Temp\VMBuilds\TestSerial\Arduino_STM32_genericSTM32F103Z\Release\core.a(usart_f1.c.o)
                                                  C:\Users\moseichuk\AppData\Local\Temp\VMBuilds\TestSerial\Arduino_STM32_genericSTM32F103Z\Release\variant\board.cpp.o
USBLIB                                            C:\Users\moseichuk\AppData\Local\Temp\VMBuilds\TestSerial\Arduino_STM32_genericSTM32F103Z\Release\core.a(usb.c.o)
                                                  C:\Users\moseichuk\AppData\Local\Temp\VMBuilds\TestSerial\Arduino_STM32_genericSTM32F103Z\Release\core.a(usb_serial.cpp.o)
                                                  C:\Users\moseichuk\AppData\Local\Temp\VMBuilds\TestSerial\Arduino_STM32_genericSTM32F103Z\Release\core.a(usb_cdcacm.c.o)
USBSerial::USBSerial()                            C:\Users\moseichuk\AppData\Local\Temp\VMBuilds\TestSerial\Arduino_STM32_genericSTM32F103Z\Release\core.a(usb_serial.cpp.o)
USBSerial::USBSerial()                            C:\Users\moseichuk\AppData\Local\Temp\VMBuilds\TestSerial\Arduino_STM32_genericSTM32F103Z\Release\core.a(usb_serial.cpp.o)
USBSerial::_hasBegun                              C:\Users\moseichuk\AppData\Local\Temp\VMBuilds\TestSerial\Arduino_STM32_genericSTM32F103Z\Release\core.a(usb_serial.cpp.o)
USBSerial::available()                            C:\Users\moseichuk\AppData\Local\Temp\VMBuilds\TestSerial\Arduino_STM32_genericSTM32F103Z\Release\core.a(usb_serial.cpp.o)
USBSerial::begin()                                C:\Users\moseichuk\AppData\Local\Temp\VMBuilds\TestSerial\Arduino_STM32_genericSTM32F103Z\Release\core.a(usb_serial.cpp.o)
                                                  C:\Users\moseichuk\AppData\Local\Temp\VMBuilds\TestSerial\Arduino_STM32_genericSTM32F103Z\Release\variant\boards_setup.cpp.o
USBSerial::begin(unsigned long)                   C:\Users\moseichuk\AppData\Local\Temp\VMBuilds\TestSerial\Arduino_STM32_genericSTM32F103Z\Release\core.a(usb_serial.cpp.o)
                                                  C:\Users\moseichuk\AppData\Local\Temp\VMBuilds\TestSerial\Arduino_STM32_genericSTM32F103Z\Release\TestSerial.cpp.o
USBSerial::begin(unsigned long, unsigned char)    C:\Users\moseichuk\AppData\Local\Temp\VMBuilds\TestSerial\Arduino_STM32_genericSTM32F103Z\Release\core.a(usb_serial.cpp.o)
USBSerial::end()                                  C:\Users\moseichuk\AppData\Local\Temp\VMBuilds\TestSerial\Arduino_STM32_genericSTM32F103Z\Release\core.a(usb_serial.cpp.o)
USBSerial::flush()                                C:\Users\moseichuk\AppData\Local\Temp\VMBuilds\TestSerial\Arduino_STM32_genericSTM32F103Z\Release\core.a(usb_serial.cpp.o)
USBSerial::getDTR()                               C:\Users\moseichuk\AppData\Local\Temp\VMBuilds\TestSerial\Arduino_STM32_genericSTM32F103Z\Release\core.a(usb_serial.cpp.o)
USBSerial::getRTS()                               C:\Users\moseichuk\AppData\Local\Temp\VMBuilds\TestSerial\Arduino_STM32_genericSTM32F103Z\Release\core.a(usb_serial.cpp.o)
USBSerial::operator bool()                        C:\Users\moseichuk\AppData\Local\Temp\VMBuilds\TestSerial\Arduino_STM32_genericSTM32F103Z\Release\core.a(usb_serial.cpp.o)
                                                  C:\Users\moseichuk\AppData\Local\Temp\VMBuilds\TestSerial\Arduino_STM32_genericSTM32F103Z\Release\TestSerial.cpp.o
USBSerial::peek()                                 C:\Users\moseichuk\AppData\Local\Temp\VMBuilds\TestSerial\Arduino_STM32_genericSTM32F103Z\Release\core.a(usb_serial.cpp.o)
USBSerial::pending()                              C:\Users\moseichuk\AppData\Local\Temp\VMBuilds\TestSerial\Arduino_STM32_genericSTM32F103Z\Release\core.a(usb_serial.cpp.o)
USBSerial::read()                                 C:\Users\moseichuk\AppData\Local\Temp\VMBuilds\TestSerial\Arduino_STM32_genericSTM32F103Z\Release\core.a(usb_serial.cpp.o)
USBSerial::read(unsigned char*, unsigned long)    C:\Users\moseichuk\AppData\Local\Temp\VMBuilds\TestSerial\Arduino_STM32_genericSTM32F103Z\Release\core.a(usb_serial.cpp.o)
USBSerial::readBytes(char*, unsigned int const&)  C:\Users\moseichuk\AppData\Local\Temp\VMBuilds\TestSerial\Arduino_STM32_genericSTM32F103Z\Release\core.a(usb_serial.cpp.o)
USBSerial::write(char const*)                     C:\Users\moseichuk\AppData\Local\Temp\VMBuilds\TestSerial\Arduino_STM32_genericSTM32F103Z\Release\core.a(usb_serial.cpp.o)
USBSerial::write(unsigned char const*, unsigned long) C:\Users\moseichuk\AppData\Local\Temp\VMBuilds\TestSerial\Arduino_STM32_genericSTM32F103Z\Release\core.a(usb_serial.cpp.o)
USBSerial::write(unsigned char)                   C:\Users\moseichuk\AppData\Local\Temp\VMBuilds\TestSerial\Arduino_STM32_genericSTM32F103Z\Release\core.a(usb_serial.cpp.o)
                                                  C:\Users\moseichuk\AppData\Local\Temp\VMBuilds\TestSerial\Arduino_STM32_genericSTM32F103Z\Release\TestSerial.cpp.o
USB_Init                                          C:\Users\moseichuk\AppData\Local\Temp\VMBuilds\TestSerial\Arduino_STM32_genericSTM32F103Z\Release\core.a(usb_init.c.o)
UserToPMABufferCopy                               C:\Users\moseichuk\AppData\Local\Temp\VMBuilds\TestSerial\Arduino_STM32_genericSTM32F103Z\Release\core.a(usb_mem.c.o)
                                                  C:\Users\moseichuk\AppData\Local\Temp\VMBuilds\TestSerial\Arduino_STM32_genericSTM32F103Z\Release\core.a(usb_core.c.o)
User_Standard_Requests                            C:\Users\moseichuk\AppData\Local\Temp\VMBuilds\TestSerial\Arduino_STM32_genericSTM32F103Z\Release\core.a(usb_cdcacm.c.o)
                                                  C:\Users\moseichuk\AppData\Local\Temp\VMBuilds\TestSerial\Arduino_STM32_genericSTM32F103Z\Release\core.a(usb_init.c.o)
                                                  C:\Users\moseichuk\AppData\Local\Temp\VMBuilds\TestSerial\Arduino_STM32_genericSTM32F103Z\Release\core.a(usb.c.o)
_Jv_RegisterClasses                               c:/users/moseichuk/appdata/local/arduino15/packages/arduino/tools/arm-none-eabi-gcc/4.8.3-2014q1/bin/../lib/gcc/arm-none-eabi/4.8.3/armv7-m/crtbegin.o
__adddf3                                          c:/users/moseichuk/appdata/local/arduino15/packages/arduino/tools/arm-none-eabi-gcc/4.8.3-2014q1/bin/../lib/gcc/arm-none-eabi/4.8.3/armv7-m\libgcc.a(_arm_addsubdf3.o)
__aeabi_cdcmpeq                                   c:/users/moseichuk/appdata/local/arduino15/packages/arduino/tools/arm-none-eabi-gcc/4.8.3-2014q1/bin/../lib/gcc/arm-none-eabi/4.8.3/armv7-m\libgcc.a(_arm_cmpdf2.o)
__aeabi_cdcmple                                   c:/users/moseichuk/appdata/local/arduino15/packages/arduino/tools/arm-none-eabi-gcc/4.8.3-2014q1/bin/../lib/gcc/arm-none-eabi/4.8.3/armv7-m\libgcc.a(_arm_cmpdf2.o)
__aeabi_cdrcmple                                  c:/users/moseichuk/appdata/local/arduino15/packages/arduino/tools/arm-none-eabi-gcc/4.8.3-2014q1/bin/../lib/gcc/arm-none-eabi/4.8.3/armv7-m\libgcc.a(_arm_cmpdf2.o)
__aeabi_d2iz                                      c:/users/moseichuk/appdata/local/arduino15/packages/arduino/tools/arm-none-eabi-gcc/4.8.3-2014q1/bin/../lib/gcc/arm-none-eabi/4.8.3/armv7-m\libgcc.a(_arm_fixdfsi.o)
                                                  C:\Users\moseichuk\AppData\Local\Temp\VMBuilds\TestSerial\Arduino_STM32_genericSTM32F103Z\Release\core.a(Print.cpp.o)
__aeabi_d2lz                                      c:/users/moseichuk/appdata/local/arduino15/packages/arduino/tools/arm-none-eabi-gcc/4.8.3-2014q1/bin/../lib/gcc/arm-none-eabi/4.8.3/armv7-m\libgcc.a(_fixdfdi.o)
                                                  C:\Users\moseichuk\AppData\Local\Temp\VMBuilds\TestSerial\Arduino_STM32_genericSTM32F103Z\Release\core.a(Print.cpp.o)
__aeabi_d2uiz                                     c:/users/moseichuk/appdata/local/arduino15/packages/arduino/tools/arm-none-eabi-gcc/4.8.3-2014q1/bin/../lib/gcc/arm-none-eabi/4.8.3/armv7-m\libgcc.a(_arm_fixunsdfsi.o)
                                                  c:/users/moseichuk/appdata/local/arduino15/packages/arduino/tools/arm-none-eabi-gcc/4.8.3-2014q1/bin/../lib/gcc/arm-none-eabi/4.8.3/armv7-m\libgcc.a(_fixunsdfdi.o)
__aeabi_d2ulz                                     c:/users/moseichuk/appdata/local/arduino15/packages/arduino/tools/arm-none-eabi-gcc/4.8.3-2014q1/bin/../lib/gcc/arm-none-eabi/4.8.3/armv7-m\libgcc.a(_fixunsdfdi.o)
                                                  c:/users/moseichuk/appdata/local/arduino15/packages/arduino/tools/arm-none-eabi-gcc/4.8.3-2014q1/bin/../lib/gcc/arm-none-eabi/4.8.3/armv7-m\libgcc.a(_fixdfdi.o)
__aeabi_dadd                                      c:/users/moseichuk/appdata/local/arduino15/packages/arduino/tools/arm-none-eabi-gcc/4.8.3-2014q1/bin/../lib/gcc/arm-none-eabi/4.8.3/armv7-m\libgcc.a(_arm_addsubdf3.o)
                                                  C:\Users\moseichuk\AppData\Local\Temp\VMBuilds\TestSerial\Arduino_STM32_genericSTM32F103Z\Release\core.a(Print.cpp.o)
__aeabi_dcmpeq                                    c:/users/moseichuk/appdata/local/arduino15/packages/arduino/tools/arm-none-eabi-gcc/4.8.3-2014q1/bin/../lib/gcc/arm-none-eabi/4.8.3/armv7-m\libgcc.a(_arm_cmpdf2.o)
__aeabi_dcmpge                                    c:/users/moseichuk/appdata/local/arduino15/packages/arduino/tools/arm-none-eabi-gcc/4.8.3-2014q1/bin/../lib/gcc/arm-none-eabi/4.8.3/armv7-m\libgcc.a(_arm_cmpdf2.o)
                                                  C:\Users\moseichuk\AppData\Local\Temp\VMBuilds\TestSerial\Arduino_STM32_genericSTM32F103Z\Release\core.a(Print.cpp.o)
__aeabi_dcmpgt                                    c:/users/moseichuk/appdata/local/arduino15/packages/arduino/tools/arm-none-eabi-gcc/4.8.3-2014q1/bin/../lib/gcc/arm-none-eabi/4.8.3/armv7-m\libgcc.a(_arm_cmpdf2.o)
                                                  C:\Users\moseichuk\AppData\Local\Temp\VMBuilds\TestSerial\Arduino_STM32_genericSTM32F103Z\Release\core.a(Print.cpp.o)
__aeabi_dcmple                                    c:/users/moseichuk/appdata/local/arduino15/packages/arduino/tools/arm-none-eabi-gcc/4.8.3-2014q1/bin/../lib/gcc/arm-none-eabi/4.8.3/armv7-m\libgcc.a(_arm_cmpdf2.o)
                                                  C:\Users\moseichuk\AppData\Local\Temp\VMBuilds\TestSerial\Arduino_STM32_genericSTM32F103Z\Release\core.a(Print.cpp.o)
__aeabi_dcmplt                                    c:/users/moseichuk/appdata/local/arduino15/packages/arduino/tools/arm-none-eabi-gcc/4.8.3-2014q1/bin/../lib/gcc/arm-none-eabi/4.8.3/armv7-m\libgcc.a(_arm_cmpdf2.o)
                                                  c:/users/moseichuk/appdata/local/arduino15/packages/arduino/tools/arm-none-eabi-gcc/4.8.3-2014q1/bin/../lib/gcc/arm-none-eabi/4.8.3/armv7-m\libgcc.a(_fixdfdi.o)
                                                  C:\Users\moseichuk\AppData\Local\Temp\VMBuilds\TestSerial\Arduino_STM32_genericSTM32F103Z\Release\core.a(Print.cpp.o)
__aeabi_ddiv                                      c:/users/moseichuk/appdata/local/arduino15/packages/arduino/tools/arm-none-eabi-gcc/4.8.3-2014q1/bin/../lib/gcc/arm-none-eabi/4.8.3/armv7-m\libgcc.a(_arm_muldivdf3.o)
                                                  C:\Users\moseichuk\AppData\Local\Temp\VMBuilds\TestSerial\Arduino_STM32_genericSTM32F103Z\Release\core.a(Print.cpp.o)
__aeabi_dmul                                      c:/users/moseichuk/appdata/local/arduino15/packages/arduino/tools/arm-none-eabi-gcc/4.8.3-2014q1/bin/../lib/gcc/arm-none-eabi/4.8.3/armv7-m\libgcc.a(_arm_muldivdf3.o)
                                                  c:/users/moseichuk/appdata/local/arduino15/packages/arduino/tools/arm-none-eabi-gcc/4.8.3-2014q1/bin/../lib/gcc/arm-none-eabi/4.8.3/armv7-m\libgcc.a(_fixunsdfdi.o)
                                                  C:\Users\moseichuk\AppData\Local\Temp\VMBuilds\TestSerial\Arduino_STM32_genericSTM32F103Z\Release\core.a(Print.cpp.o)
__aeabi_drsub                                     c:/users/moseichuk/appdata/local/arduino15/packages/arduino/tools/arm-none-eabi-gcc/4.8.3-2014q1/bin/../lib/gcc/arm-none-eabi/4.8.3/armv7-m\libgcc.a(_arm_addsubdf3.o)
__aeabi_dsub                                      c:/users/moseichuk/appdata/local/arduino15/packages/arduino/tools/arm-none-eabi-gcc/4.8.3-2014q1/bin/../lib/gcc/arm-none-eabi/4.8.3/armv7-m\libgcc.a(_arm_addsubdf3.o)
                                                  c:/users/moseichuk/appdata/local/arduino15/packages/arduino/tools/arm-none-eabi-gcc/4.8.3-2014q1/bin/../lib/gcc/arm-none-eabi/4.8.3/armv7-m\libgcc.a(_fixunsdfdi.o)
                                                  C:\Users\moseichuk\AppData\Local\Temp\VMBuilds\TestSerial\Arduino_STM32_genericSTM32F103Z\Release\core.a(Print.cpp.o)
__aeabi_f2d                                       c:/users/moseichuk/appdata/local/arduino15/packages/arduino/tools/arm-none-eabi-gcc/4.8.3-2014q1/bin/../lib/gcc/arm-none-eabi/4.8.3/armv7-m\libgcc.a(_arm_addsubdf3.o)
__aeabi_i2d                                       c:/users/moseichuk/appdata/local/arduino15/packages/arduino/tools/arm-none-eabi-gcc/4.8.3-2014q1/bin/../lib/gcc/arm-none-eabi/4.8.3/armv7-m\libgcc.a(_arm_addsubdf3.o)
                                                  C:\Users\moseichuk\AppData\Local\Temp\VMBuilds\TestSerial\Arduino_STM32_genericSTM32F103Z\Release\core.a(Print.cpp.o)
__aeabi_idiv0                                     c:/users/moseichuk/appdata/local/arduino15/packages/arduino/tools/arm-none-eabi-gcc/4.8.3-2014q1/bin/../lib/gcc/arm-none-eabi/4.8.3/armv7-m\libgcc.a(_dvmd_tls.o)
__aeabi_l2d                                       c:/users/moseichuk/appdata/local/arduino15/packages/arduino/tools/arm-none-eabi-gcc/4.8.3-2014q1/bin/../lib/gcc/arm-none-eabi/4.8.3/armv7-m\libgcc.a(_arm_addsubdf3.o)
                                                  C:\Users\moseichuk\AppData\Local\Temp\VMBuilds\TestSerial\Arduino_STM32_genericSTM32F103Z\Release\core.a(Print.cpp.o)
__aeabi_ldiv0                                     c:/users/moseichuk/appdata/local/arduino15/packages/arduino/tools/arm-none-eabi-gcc/4.8.3-2014q1/bin/../lib/gcc/arm-none-eabi/4.8.3/armv7-m\libgcc.a(_dvmd_tls.o)
                                                  c:/users/moseichuk/appdata/local/arduino15/packages/arduino/tools/arm-none-eabi-gcc/4.8.3-2014q1/bin/../lib/gcc/arm-none-eabi/4.8.3/armv7-m\libgcc.a(_aeabi_uldivmod.o)
__aeabi_ui2d                                      c:/users/moseichuk/appdata/local/arduino15/packages/arduino/tools/arm-none-eabi-gcc/4.8.3-2014q1/bin/../lib/gcc/arm-none-eabi/4.8.3/armv7-m\libgcc.a(_arm_addsubdf3.o)
                                                  c:/users/moseichuk/appdata/local/arduino15/packages/arduino/tools/arm-none-eabi-gcc/4.8.3-2014q1/bin/../lib/gcc/arm-none-eabi/4.8.3/armv7-m\libgcc.a(_fixunsdfdi.o)
__aeabi_ul2d                                      c:/users/moseichuk/appdata/local/arduino15/packages/arduino/tools/arm-none-eabi-gcc/4.8.3-2014q1/bin/../lib/gcc/arm-none-eabi/4.8.3/armv7-m\libgcc.a(_arm_addsubdf3.o)
__aeabi_uldivmod                                  c:/users/moseichuk/appdata/local/arduino15/packages/arduino/tools/arm-none-eabi-gcc/4.8.3-2014q1/bin/../lib/gcc/arm-none-eabi/4.8.3/armv7-m\libgcc.a(_aeabi_uldivmod.o)
                                                  C:\Users\moseichuk\AppData\Local\Temp\VMBuilds\TestSerial\Arduino_STM32_genericSTM32F103Z\Release\core.a(Print.cpp.o)
__assert_func                                     C:\Users\moseichuk\AppData\Local\Temp\VMBuilds\TestSerial\Arduino_STM32_genericSTM32F103Z\Release\core.a(util.c.o)
__bss_end__                                       C:\Users\moseichuk\AppData\Local\Temp\VMBuilds\TestSerial\Arduino_STM32_genericSTM32F103Z\Release\variant\start_c.c.o
                                                  c:/users/moseichuk/appdata/local/arduino15/packages/arduino/tools/arm-none-eabi-gcc/4.8.3-2014q1/bin/../lib/gcc/arm-none-eabi/4.8.3/../../../../arm-none-eabi/lib/armv7-m/crt0.o
__bss_start__                                     C:\Users\moseichuk\AppData\Local\Temp\VMBuilds\TestSerial\Arduino_STM32_genericSTM32F103Z\Release\variant\start_c.c.o
                                                  c:/users/moseichuk/appdata/local/arduino15/packages/arduino/tools/arm-none-eabi-gcc/4.8.3-2014q1/bin/../lib/gcc/arm-none-eabi/4.8.3/../../../../arm-none-eabi/lib/armv7-m/crt0.o
__call_exitprocs                                  c:/users/moseichuk/appdata/local/arduino15/packages/arduino/tools/arm-none-eabi-gcc/4.8.3-2014q1/bin/../lib/gcc/arm-none-eabi/4.8.3/../../../../arm-none-eabi/lib/armv7-m\libc.a(lib_a-__call_atexit.o)
                                                  c:/users/moseichuk/appdata/local/arduino15/packages/arduino/tools/arm-none-eabi-gcc/4.8.3-2014q1/bin/../lib/gcc/arm-none-eabi/4.8.3/../../../../arm-none-eabi/lib/armv7-m\libc.a(lib_a-exit.o)
__cmpdf2                                          c:/users/moseichuk/appdata/local/arduino15/packages/arduino/tools/arm-none-eabi-gcc/4.8.3-2014q1/bin/../lib/gcc/arm-none-eabi/4.8.3/armv7-m\libgcc.a(_arm_cmpdf2.o)
__cxa_pure_virtual                                C:\Users\moseichuk\AppData\Local\Temp\VMBuilds\TestSerial\Arduino_STM32_genericSTM32F103Z\Release\core.a(cxxabi-compat.cpp.o)
                                                  C:\Users\moseichuk\AppData\Local\Temp\VMBuilds\TestSerial\Arduino_STM32_genericSTM32F103Z\Release\core.a(usb_serial.cpp.o)
                                                  C:\Users\moseichuk\AppData\Local\Temp\VMBuilds\TestSerial\Arduino_STM32_genericSTM32F103Z\Release\core.a(Print.cpp.o)
                                                  C:\Users\moseichuk\AppData\Local\Temp\VMBuilds\TestSerial\Arduino_STM32_genericSTM32F103Z\Release\core.a(HardwareSerial.cpp.o)
__data_end__                                      C:\Users\moseichuk\AppData\Local\Temp\VMBuilds\TestSerial\Arduino_STM32_genericSTM32F103Z\Release\variant\start_c.c.o
__data_start__                                    C:\Users\moseichuk\AppData\Local\Temp\VMBuilds\TestSerial\Arduino_STM32_genericSTM32F103Z\Release\variant\start_c.c.o
__default_handler                                 C:\Users\moseichuk\AppData\Local\Temp\VMBuilds\TestSerial\Arduino_STM32_genericSTM32F103Z\Release\core.a(isrs.S.o)
__deregister_frame_info                           c:/users/moseichuk/appdata/local/arduino15/packages/arduino/tools/arm-none-eabi-gcc/4.8.3-2014q1/bin/../lib/gcc/arm-none-eabi/4.8.3/armv7-m/crtbegin.o
__divdf3                                          c:/users/moseichuk/appdata/local/arduino15/packages/arduino/tools/arm-none-eabi-gcc/4.8.3-2014q1/bin/../lib/gcc/arm-none-eabi/4.8.3/armv7-m\libgcc.a(_arm_muldivdf3.o)
__divdi3                                          c:/users/moseichuk/appdata/local/arduino15/packages/arduino/tools/arm-none-eabi-gcc/4.8.3-2014q1/bin/../lib/gcc/arm-none-eabi/4.8.3/armv7-m\libgcc.a(_divdi3.o)
                                                  c:/users/moseichuk/appdata/local/arduino15/packages/arduino/tools/arm-none-eabi-gcc/4.8.3-2014q1/bin/../lib/gcc/arm-none-eabi/4.8.3/armv7-m\libgcc.a(bpabi.o)
__dso_handle                                      c:/users/moseichuk/appdata/local/arduino15/packages/arduino/tools/arm-none-eabi-gcc/4.8.3-2014q1/bin/../lib/gcc/arm-none-eabi/4.8.3/armv7-m/crtbegin.o
__eqdf2                                           c:/users/moseichuk/appdata/local/arduino15/packages/arduino/tools/arm-none-eabi-gcc/4.8.3-2014q1/bin/../lib/gcc/arm-none-eabi/4.8.3/armv7-m\libgcc.a(_arm_cmpdf2.o)
__errno                                           c:/users/moseichuk/appdata/local/arduino15/packages/arduino/tools/arm-none-eabi-gcc/4.8.3-2014q1/bin/../lib/gcc/arm-none-eabi/4.8.3/../../../../arm-none-eabi/lib/armv7-m\libc.a(lib_a-errno.o)
                                                  C:\Users\moseichuk\AppData\Local\Temp\VMBuilds\TestSerial\Arduino_STM32_genericSTM32F103Z\Release\variant\syscalls.c.o
__error                                           C:\Users\moseichuk\AppData\Local\Temp\VMBuilds\TestSerial\Arduino_STM32_genericSTM32F103Z\Release\core.a(util.c.o)
                                                  C:\Users\moseichuk\AppData\Local\Temp\VMBuilds\TestSerial\Arduino_STM32_genericSTM32F103Z\Release\core.a(exc.S.o)
__exc_busfault                                    C:\Users\moseichuk\AppData\Local\Temp\VMBuilds\TestSerial\Arduino_STM32_genericSTM32F103Z\Release\core.a(exc.S.o)
                                                  C:\Users\moseichuk\AppData\Local\Temp\VMBuilds\TestSerial\Arduino_STM32_genericSTM32F103Z\Release\core.a(vector_table.S.o)
__exc_debug_monitor                               C:\Users\moseichuk\AppData\Local\Temp\VMBuilds\TestSerial\Arduino_STM32_genericSTM32F103Z\Release\core.a(isrs.S.o)
                                                  C:\Users\moseichuk\AppData\Local\Temp\VMBuilds\TestSerial\Arduino_STM32_genericSTM32F103Z\Release\core.a(vector_table.S.o)
__exc_hardfault                                   C:\Users\moseichuk\AppData\Local\Temp\VMBuilds\TestSerial\Arduino_STM32_genericSTM32F103Z\Release\core.a(exc.S.o)
                                                  C:\Users\moseichuk\AppData\Local\Temp\VMBuilds\TestSerial\Arduino_STM32_genericSTM32F103Z\Release\core.a(vector_table.S.o)
__exc_memmanage                                   C:\Users\moseichuk\AppData\Local\Temp\VMBuilds\TestSerial\Arduino_STM32_genericSTM32F103Z\Release\core.a(exc.S.o)
                                                  C:\Users\moseichuk\AppData\Local\Temp\VMBuilds\TestSerial\Arduino_STM32_genericSTM32F103Z\Release\core.a(vector_table.S.o)
__exc_nmi                                         C:\Users\moseichuk\AppData\Local\Temp\VMBuilds\TestSerial\Arduino_STM32_genericSTM32F103Z\Release\core.a(exc.S.o)
                                                  C:\Users\moseichuk\AppData\Local\Temp\VMBuilds\TestSerial\Arduino_STM32_genericSTM32F103Z\Release\core.a(vector_table.S.o)
__exc_pendsv                                      C:\Users\moseichuk\AppData\Local\Temp\VMBuilds\TestSerial\Arduino_STM32_genericSTM32F103Z\Release\core.a(isrs.S.o)
                                                  C:\Users\moseichuk\AppData\Local\Temp\VMBuilds\TestSerial\Arduino_STM32_genericSTM32F103Z\Release\core.a(vector_table.S.o)
__exc_reset                                       C:\Users\moseichuk\AppData\Local\Temp\VMBuilds\TestSerial\Arduino_STM32_genericSTM32F103Z\Release\core.a(vector_table.S.o)
__exc_svc                                         C:\Users\moseichuk\AppData\Local\Temp\VMBuilds\TestSerial\Arduino_STM32_genericSTM32F103Z\Release\core.a(isrs.S.o)
                                                  C:\Users\moseichuk\AppData\Local\Temp\VMBuilds\TestSerial\Arduino_STM32_genericSTM32F103Z\Release\core.a(vector_table.S.o)
__exc_systick                                     C:\Users\moseichuk\AppData\Local\Temp\VMBuilds\TestSerial\Arduino_STM32_genericSTM32F103Z\Release\core.a(systick.c.o)
                                                  C:\Users\moseichuk\AppData\Local\Temp\VMBuilds\TestSerial\Arduino_STM32_genericSTM32F103Z\Release\core.a(vector_table.S.o)
__exc_usagefault                                  C:\Users\moseichuk\AppData\Local\Temp\VMBuilds\TestSerial\Arduino_STM32_genericSTM32F103Z\Release\core.a(exc.S.o)
                                                  C:\Users\moseichuk\AppData\Local\Temp\VMBuilds\TestSerial\Arduino_STM32_genericSTM32F103Z\Release\core.a(vector_table.S.o)
__extendsfdf2                                     c:/users/moseichuk/appdata/local/arduino15/packages/arduino/tools/arm-none-eabi-gcc/4.8.3-2014q1/bin/../lib/gcc/arm-none-eabi/4.8.3/armv7-m\libgcc.a(_arm_addsubdf3.o)
__fini_array_end                                  c:/users/moseichuk/appdata/local/arduino15/packages/arduino/tools/arm-none-eabi-gcc/4.8.3-2014q1/bin/../lib/gcc/arm-none-eabi/4.8.3/../../../../arm-none-eabi/lib/armv7-m\libc.a(lib_a-fini.o)
__fini_array_start                                c:/users/moseichuk/appdata/local/arduino15/packages/arduino/tools/arm-none-eabi-gcc/4.8.3-2014q1/bin/../lib/gcc/arm-none-eabi/4.8.3/../../../../arm-none-eabi/lib/armv7-m\libc.a(lib_a-fini.o)
__fixdfdi                                         c:/users/moseichuk/appdata/local/arduino15/packages/arduino/tools/arm-none-eabi-gcc/4.8.3-2014q1/bin/../lib/gcc/arm-none-eabi/4.8.3/armv7-m\libgcc.a(_fixdfdi.o)
__fixdfsi                                         c:/users/moseichuk/appdata/local/arduino15/packages/arduino/tools/arm-none-eabi-gcc/4.8.3-2014q1/bin/../lib/gcc/arm-none-eabi/4.8.3/armv7-m\libgcc.a(_arm_fixdfsi.o)
__fixunsdfdi                                      c:/users/moseichuk/appdata/local/arduino15/packages/arduino/tools/arm-none-eabi-gcc/4.8.3-2014q1/bin/../lib/gcc/arm-none-eabi/4.8.3/armv7-m\libgcc.a(_fixunsdfdi.o)
__fixunsdfsi                                      c:/users/moseichuk/appdata/local/arduino15/packages/arduino/tools/arm-none-eabi-gcc/4.8.3-2014q1/bin/../lib/gcc/arm-none-eabi/4.8.3/armv7-m\libgcc.a(_arm_fixunsdfsi.o)
__floatdidf                                       c:/users/moseichuk/appdata/local/arduino15/packages/arduino/tools/arm-none-eabi-gcc/4.8.3-2014q1/bin/../lib/gcc/arm-none-eabi/4.8.3/armv7-m\libgcc.a(_arm_addsubdf3.o)
__floatsidf                                       c:/users/moseichuk/appdata/local/arduino15/packages/arduino/tools/arm-none-eabi-gcc/4.8.3-2014q1/bin/../lib/gcc/arm-none-eabi/4.8.3/armv7-m\libgcc.a(_arm_addsubdf3.o)
__floatundidf                                     c:/users/moseichuk/appdata/local/arduino15/packages/arduino/tools/arm-none-eabi-gcc/4.8.3-2014q1/bin/../lib/gcc/arm-none-eabi/4.8.3/armv7-m\libgcc.a(_arm_addsubdf3.o)
__floatunsidf                                     c:/users/moseichuk/appdata/local/arduino15/packages/arduino/tools/arm-none-eabi-gcc/4.8.3-2014q1/bin/../lib/gcc/arm-none-eabi/4.8.3/armv7-m\libgcc.a(_arm_addsubdf3.o)
__gedf2                                           c:/users/moseichuk/appdata/local/arduino15/packages/arduino/tools/arm-none-eabi-gcc/4.8.3-2014q1/bin/../lib/gcc/arm-none-eabi/4.8.3/armv7-m\libgcc.a(_arm_cmpdf2.o)
__gnu_ldivmod_helper                              c:/users/moseichuk/appdata/local/arduino15/packages/arduino/tools/arm-none-eabi-gcc/4.8.3-2014q1/bin/../lib/gcc/arm-none-eabi/4.8.3/armv7-m\libgcc.a(bpabi.o)
__gnu_uldivmod_helper                             c:/users/moseichuk/appdata/local/arduino15/packages/arduino/tools/arm-none-eabi-gcc/4.8.3-2014q1/bin/../lib/gcc/arm-none-eabi/4.8.3/armv7-m\libgcc.a(bpabi.o)
                                                  c:/users/moseichuk/appdata/local/arduino15/packages/arduino/tools/arm-none-eabi-gcc/4.8.3-2014q1/bin/../lib/gcc/arm-none-eabi/4.8.3/armv7-m\libgcc.a(_aeabi_uldivmod.o)
__gtdf2                                           c:/users/moseichuk/appdata/local/arduino15/packages/arduino/tools/arm-none-eabi-gcc/4.8.3-2014q1/bin/../lib/gcc/arm-none-eabi/4.8.3/armv7-m\libgcc.a(_arm_cmpdf2.o)
__init_array_end                                  c:/users/moseichuk/appdata/local/arduino15/packages/arduino/tools/arm-none-eabi-gcc/4.8.3-2014q1/bin/../lib/gcc/arm-none-eabi/4.8.3/../../../../arm-none-eabi/lib/armv7-m\libc.a(lib_a-init.o)
__init_array_start                                c:/users/moseichuk/appdata/local/arduino15/packages/arduino/tools/arm-none-eabi-gcc/4.8.3-2014q1/bin/../lib/gcc/arm-none-eabi/4.8.3/../../../../arm-none-eabi/lib/armv7-m\libc.a(lib_a-init.o)
__irq_adc                                         C:\Users\moseichuk\AppData\Local\Temp\VMBuilds\TestSerial\Arduino_STM32_genericSTM32F103Z\Release\core.a(adc_f1.c.o)
                                                  C:\Users\moseichuk\AppData\Local\Temp\VMBuilds\TestSerial\Arduino_STM32_genericSTM32F103Z\Release\core.a(vector_table.S.o)
__irq_adc3                                        C:\Users\moseichuk\AppData\Local\Temp\VMBuilds\TestSerial\Arduino_STM32_genericSTM32F103Z\Release\core.a(adc_f1.c.o)
                                                  C:\Users\moseichuk\AppData\Local\Temp\VMBuilds\TestSerial\Arduino_STM32_genericSTM32F103Z\Release\core.a(vector_table.S.o)
__irq_can_rx1                                     C:\Users\moseichuk\AppData\Local\Temp\VMBuilds\TestSerial\Arduino_STM32_genericSTM32F103Z\Release\core.a(isrs.S.o)
                                                  C:\Users\moseichuk\AppData\Local\Temp\VMBuilds\TestSerial\Arduino_STM32_genericSTM32F103Z\Release\core.a(vector_table.S.o)
__irq_can_sce                                     C:\Users\moseichuk\AppData\Local\Temp\VMBuilds\TestSerial\Arduino_STM32_genericSTM32F103Z\Release\core.a(isrs.S.o)
                                                  C:\Users\moseichuk\AppData\Local\Temp\VMBuilds\TestSerial\Arduino_STM32_genericSTM32F103Z\Release\core.a(vector_table.S.o)
__irq_dma1_channel1                               C:\Users\moseichuk\AppData\Local\Temp\VMBuilds\TestSerial\Arduino_STM32_genericSTM32F103Z\Release\core.a(dma_f1.c.o)
                                                  C:\Users\moseichuk\AppData\Local\Temp\VMBuilds\TestSerial\Arduino_STM32_genericSTM32F103Z\Release\core.a(vector_table.S.o)
__irq_dma1_channel2                               C:\Users\moseichuk\AppData\Local\Temp\VMBuilds\TestSerial\Arduino_STM32_genericSTM32F103Z\Release\core.a(dma_f1.c.o)
                                                  C:\Users\moseichuk\AppData\Local\Temp\VMBuilds\TestSerial\Arduino_STM32_genericSTM32F103Z\Release\core.a(vector_table.S.o)
__irq_dma1_channel3                               C:\Users\moseichuk\AppData\Local\Temp\VMBuilds\TestSerial\Arduino_STM32_genericSTM32F103Z\Release\core.a(dma_f1.c.o)
                                                  C:\Users\moseichuk\AppData\Local\Temp\VMBuilds\TestSerial\Arduino_STM32_genericSTM32F103Z\Release\core.a(vector_table.S.o)
__irq_dma1_channel4                               C:\Users\moseichuk\AppData\Local\Temp\VMBuilds\TestSerial\Arduino_STM32_genericSTM32F103Z\Release\core.a(dma_f1.c.o)
                                                  C:\Users\moseichuk\AppData\Local\Temp\VMBuilds\TestSerial\Arduino_STM32_genericSTM32F103Z\Release\core.a(vector_table.S.o)
__irq_dma1_channel5                               C:\Users\moseichuk\AppData\Local\Temp\VMBuilds\TestSerial\Arduino_STM32_genericSTM32F103Z\Release\core.a(dma_f1.c.o)
                                                  C:\Users\moseichuk\AppData\Local\Temp\VMBuilds\TestSerial\Arduino_STM32_genericSTM32F103Z\Release\core.a(vector_table.S.o)
__irq_dma1_channel6                               C:\Users\moseichuk\AppData\Local\Temp\VMBuilds\TestSerial\Arduino_STM32_genericSTM32F103Z\Release\core.a(dma_f1.c.o)
                                                  C:\Users\moseichuk\AppData\Local\Temp\VMBuilds\TestSerial\Arduino_STM32_genericSTM32F103Z\Release\core.a(vector_table.S.o)
__irq_dma1_channel7                               C:\Users\moseichuk\AppData\Local\Temp\VMBuilds\TestSerial\Arduino_STM32_genericSTM32F103Z\Release\core.a(dma_f1.c.o)
                                                  C:\Users\moseichuk\AppData\Local\Temp\VMBuilds\TestSerial\Arduino_STM32_genericSTM32F103Z\Release\core.a(vector_table.S.o)
__irq_dma2_channel1                               C:\Users\moseichuk\AppData\Local\Temp\VMBuilds\TestSerial\Arduino_STM32_genericSTM32F103Z\Release\core.a(dma_f1.c.o)
                                                  C:\Users\moseichuk\AppData\Local\Temp\VMBuilds\TestSerial\Arduino_STM32_genericSTM32F103Z\Release\core.a(vector_table.S.o)
__irq_dma2_channel2                               C:\Users\moseichuk\AppData\Local\Temp\VMBuilds\TestSerial\Arduino_STM32_genericSTM32F103Z\Release\core.a(dma_f1.c.o)
                                                  C:\Users\moseichuk\AppData\Local\Temp\VMBuilds\TestSerial\Arduino_STM32_genericSTM32F103Z\Release\core.a(vector_table.S.o)
__irq_dma2_channel3                               C:\Users\moseichuk\AppData\Local\Temp\VMBuilds\TestSerial\Arduino_STM32_genericSTM32F103Z\Release\core.a(dma_f1.c.o)
                                                  C:\Users\moseichuk\AppData\Local\Temp\VMBuilds\TestSerial\Arduino_STM32_genericSTM32F103Z\Release\core.a(vector_table.S.o)
__irq_dma2_channel4_5                             C:\Users\moseichuk\AppData\Local\Temp\VMBuilds\TestSerial\Arduino_STM32_genericSTM32F103Z\Release\core.a(dma_f1.c.o)
                                                  C:\Users\moseichuk\AppData\Local\Temp\VMBuilds\TestSerial\Arduino_STM32_genericSTM32F103Z\Release\core.a(vector_table.S.o)
__irq_exti0                                       C:\Users\moseichuk\AppData\Local\Temp\VMBuilds\TestSerial\Arduino_STM32_genericSTM32F103Z\Release\core.a(exti.c.o)
                                                  C:\Users\moseichuk\AppData\Local\Temp\VMBuilds\TestSerial\Arduino_STM32_genericSTM32F103Z\Release\core.a(vector_table.S.o)
__irq_exti1                                       C:\Users\moseichuk\AppData\Local\Temp\VMBuilds\TestSerial\Arduino_STM32_genericSTM32F103Z\Release\core.a(exti.c.o)
                                                  C:\Users\moseichuk\AppData\Local\Temp\VMBuilds\TestSerial\Arduino_STM32_genericSTM32F103Z\Release\core.a(vector_table.S.o)
__irq_exti15_10                                   C:\Users\moseichuk\AppData\Local\Temp\VMBuilds\TestSerial\Arduino_STM32_genericSTM32F103Z\Release\core.a(exti.c.o)
                                                  C:\Users\moseichuk\AppData\Local\Temp\VMBuilds\TestSerial\Arduino_STM32_genericSTM32F103Z\Release\core.a(vector_table.S.o)
__irq_exti2                                       C:\Users\moseichuk\AppData\Local\Temp\VMBuilds\TestSerial\Arduino_STM32_genericSTM32F103Z\Release\core.a(exti.c.o)
                                                  C:\Users\moseichuk\AppData\Local\Temp\VMBuilds\TestSerial\Arduino_STM32_genericSTM32F103Z\Release\core.a(vector_table.S.o)
__irq_exti3                                       C:\Users\moseichuk\AppData\Local\Temp\VMBuilds\TestSerial\Arduino_STM32_genericSTM32F103Z\Release\core.a(exti.c.o)
                                                  C:\Users\moseichuk\AppData\Local\Temp\VMBuilds\TestSerial\Arduino_STM32_genericSTM32F103Z\Release\core.a(vector_table.S.o)
__irq_exti4                                       C:\Users\moseichuk\AppData\Local\Temp\VMBuilds\TestSerial\Arduino_STM32_genericSTM32F103Z\Release\core.a(exti.c.o)
                                                  C:\Users\moseichuk\AppData\Local\Temp\VMBuilds\TestSerial\Arduino_STM32_genericSTM32F103Z\Release\core.a(vector_table.S.o)
__irq_exti9_5                                     C:\Users\moseichuk\AppData\Local\Temp\VMBuilds\TestSerial\Arduino_STM32_genericSTM32F103Z\Release\core.a(exti.c.o)
                                                  C:\Users\moseichuk\AppData\Local\Temp\VMBuilds\TestSerial\Arduino_STM32_genericSTM32F103Z\Release\core.a(vector_table.S.o)
__irq_flash                                       C:\Users\moseichuk\AppData\Local\Temp\VMBuilds\TestSerial\Arduino_STM32_genericSTM32F103Z\Release\core.a(isrs.S.o)
                                                  C:\Users\moseichuk\AppData\Local\Temp\VMBuilds\TestSerial\Arduino_STM32_genericSTM32F103Z\Release\core.a(vector_table.S.o)
__irq_fsmc                                        C:\Users\moseichuk\AppData\Local\Temp\VMBuilds\TestSerial\Arduino_STM32_genericSTM32F103Z\Release\core.a(isrs.S.o)
                                                  C:\Users\moseichuk\AppData\Local\Temp\VMBuilds\TestSerial\Arduino_STM32_genericSTM32F103Z\Release\core.a(vector_table.S.o)
__irq_i2c1_er                                     C:\Users\moseichuk\AppData\Local\Temp\VMBuilds\TestSerial\Arduino_STM32_genericSTM32F103Z\Release\core.a(i2c_f1.c.o)
                                                  C:\Users\moseichuk\AppData\Local\Temp\VMBuilds\TestSerial\Arduino_STM32_genericSTM32F103Z\Release\core.a(vector_table.S.o)
__irq_i2c1_ev                                     C:\Users\moseichuk\AppData\Local\Temp\VMBuilds\TestSerial\Arduino_STM32_genericSTM32F103Z\Release\core.a(i2c_f1.c.o)
                                                  C:\Users\moseichuk\AppData\Local\Temp\VMBuilds\TestSerial\Arduino_STM32_genericSTM32F103Z\Release\core.a(vector_table.S.o)
__irq_i2c2_er                                     C:\Users\moseichuk\AppData\Local\Temp\VMBuilds\TestSerial\Arduino_STM32_genericSTM32F103Z\Release\core.a(i2c_f1.c.o)
                                                  C:\Users\moseichuk\AppData\Local\Temp\VMBuilds\TestSerial\Arduino_STM32_genericSTM32F103Z\Release\core.a(vector_table.S.o)
__irq_i2c2_ev                                     C:\Users\moseichuk\AppData\Local\Temp\VMBuilds\TestSerial\Arduino_STM32_genericSTM32F103Z\Release\core.a(i2c_f1.c.o)
                                                  C:\Users\moseichuk\AppData\Local\Temp\VMBuilds\TestSerial\Arduino_STM32_genericSTM32F103Z\Release\core.a(vector_table.S.o)
__irq_pvd                                         C:\Users\moseichuk\AppData\Local\Temp\VMBuilds\TestSerial\Arduino_STM32_genericSTM32F103Z\Release\core.a(isrs.S.o)
                                                  C:\Users\moseichuk\AppData\Local\Temp\VMBuilds\TestSerial\Arduino_STM32_genericSTM32F103Z\Release\core.a(vector_table.S.o)
__irq_rcc                                         C:\Users\moseichuk\AppData\Local\Temp\VMBuilds\TestSerial\Arduino_STM32_genericSTM32F103Z\Release\core.a(isrs.S.o)
                                                  C:\Users\moseichuk\AppData\Local\Temp\VMBuilds\TestSerial\Arduino_STM32_genericSTM32F103Z\Release\core.a(vector_table.S.o)
__irq_rtc                                         C:\Users\moseichuk\AppData\Local\Temp\VMBuilds\TestSerial\Arduino_STM32_genericSTM32F103Z\Release\core.a(isrs.S.o)
                                                  C:\Users\moseichuk\AppData\Local\Temp\VMBuilds\TestSerial\Arduino_STM32_genericSTM32F103Z\Release\core.a(vector_table.S.o)
__irq_rtcalarm                                    C:\Users\moseichuk\AppData\Local\Temp\VMBuilds\TestSerial\Arduino_STM32_genericSTM32F103Z\Release\core.a(isrs.S.o)
                                                  C:\Users\moseichuk\AppData\Local\Temp\VMBuilds\TestSerial\Arduino_STM32_genericSTM32F103Z\Release\core.a(vector_table.S.o)
__irq_sdio                                        C:\Users\moseichuk\AppData\Local\Temp\VMBuilds\TestSerial\Arduino_STM32_genericSTM32F103Z\Release\core.a(isrs.S.o)
                                                  C:\Users\moseichuk\AppData\Local\Temp\VMBuilds\TestSerial\Arduino_STM32_genericSTM32F103Z\Release\core.a(vector_table.S.o)
__irq_spi1                                        C:\Users\moseichuk\AppData\Local\Temp\VMBuilds\TestSerial\Arduino_STM32_genericSTM32F103Z\Release\core.a(isrs.S.o)
                                                  C:\Users\moseichuk\AppData\Local\Temp\VMBuilds\TestSerial\Arduino_STM32_genericSTM32F103Z\Release\core.a(vector_table.S.o)
__irq_spi2                                        C:\Users\moseichuk\AppData\Local\Temp\VMBuilds\TestSerial\Arduino_STM32_genericSTM32F103Z\Release\core.a(isrs.S.o)
                                                  C:\Users\moseichuk\AppData\Local\Temp\VMBuilds\TestSerial\Arduino_STM32_genericSTM32F103Z\Release\core.a(vector_table.S.o)
__irq_spi3                                        C:\Users\moseichuk\AppData\Local\Temp\VMBuilds\TestSerial\Arduino_STM32_genericSTM32F103Z\Release\core.a(isrs.S.o)
                                                  C:\Users\moseichuk\AppData\Local\Temp\VMBuilds\TestSerial\Arduino_STM32_genericSTM32F103Z\Release\core.a(vector_table.S.o)
__irq_tamper                                      C:\Users\moseichuk\AppData\Local\Temp\VMBuilds\TestSerial\Arduino_STM32_genericSTM32F103Z\Release\core.a(isrs.S.o)
                                                  C:\Users\moseichuk\AppData\Local\Temp\VMBuilds\TestSerial\Arduino_STM32_genericSTM32F103Z\Release\core.a(vector_table.S.o)
__irq_tim1_brk                                    C:\Users\moseichuk\AppData\Local\Temp\VMBuilds\TestSerial\Arduino_STM32_genericSTM32F103Z\Release\core.a(timer.c.o)
                                                  C:\Users\moseichuk\AppData\Local\Temp\VMBuilds\TestSerial\Arduino_STM32_genericSTM32F103Z\Release\core.a(vector_table.S.o)
__irq_tim1_cc                                     C:\Users\moseichuk\AppData\Local\Temp\VMBuilds\TestSerial\Arduino_STM32_genericSTM32F103Z\Release\core.a(timer.c.o)
                                                  C:\Users\moseichuk\AppData\Local\Temp\VMBuilds\TestSerial\Arduino_STM32_genericSTM32F103Z\Release\core.a(vector_table.S.o)
__irq_tim1_trg_com                                C:\Users\moseichuk\AppData\Local\Temp\VMBuilds\TestSerial\Arduino_STM32_genericSTM32F103Z\Release\core.a(timer.c.o)
                                                  C:\Users\moseichuk\AppData\Local\Temp\VMBuilds\TestSerial\Arduino_STM32_genericSTM32F103Z\Release\core.a(vector_table.S.o)
__irq_tim1_up                                     C:\Users\moseichuk\AppData\Local\Temp\VMBuilds\TestSerial\Arduino_STM32_genericSTM32F103Z\Release\core.a(timer.c.o)
                                                  C:\Users\moseichuk\AppData\Local\Temp\VMBuilds\TestSerial\Arduino_STM32_genericSTM32F103Z\Release\core.a(vector_table.S.o)
__irq_tim2                                        C:\Users\moseichuk\AppData\Local\Temp\VMBuilds\TestSerial\Arduino_STM32_genericSTM32F103Z\Release\core.a(timer.c.o)
                                                  C:\Users\moseichuk\AppData\Local\Temp\VMBuilds\TestSerial\Arduino_STM32_genericSTM32F103Z\Release\core.a(vector_table.S.o)
__irq_tim3                                        C:\Users\moseichuk\AppData\Local\Temp\VMBuilds\TestSerial\Arduino_STM32_genericSTM32F103Z\Release\core.a(timer.c.o)
                                                  C:\Users\moseichuk\AppData\Local\Temp\VMBuilds\TestSerial\Arduino_STM32_genericSTM32F103Z\Release\core.a(vector_table.S.o)
__irq_tim4                                        C:\Users\moseichuk\AppData\Local\Temp\VMBuilds\TestSerial\Arduino_STM32_genericSTM32F103Z\Release\core.a(timer.c.o)
                                                  C:\Users\moseichuk\AppData\Local\Temp\VMBuilds\TestSerial\Arduino_STM32_genericSTM32F103Z\Release\core.a(vector_table.S.o)
__irq_tim5                                        C:\Users\moseichuk\AppData\Local\Temp\VMBuilds\TestSerial\Arduino_STM32_genericSTM32F103Z\Release\core.a(timer.c.o)
                                                  C:\Users\moseichuk\AppData\Local\Temp\VMBuilds\TestSerial\Arduino_STM32_genericSTM32F103Z\Release\core.a(vector_table.S.o)
__irq_tim6                                        C:\Users\moseichuk\AppData\Local\Temp\VMBuilds\TestSerial\Arduino_STM32_genericSTM32F103Z\Release\core.a(timer.c.o)
                                                  C:\Users\moseichuk\AppData\Local\Temp\VMBuilds\TestSerial\Arduino_STM32_genericSTM32F103Z\Release\core.a(vector_table.S.o)
__irq_tim7                                        C:\Users\moseichuk\AppData\Local\Temp\VMBuilds\TestSerial\Arduino_STM32_genericSTM32F103Z\Release\core.a(timer.c.o)
                                                  C:\Users\moseichuk\AppData\Local\Temp\VMBuilds\TestSerial\Arduino_STM32_genericSTM32F103Z\Release\core.a(vector_table.S.o)
__irq_tim8_brk                                    C:\Users\moseichuk\AppData\Local\Temp\VMBuilds\TestSerial\Arduino_STM32_genericSTM32F103Z\Release\core.a(timer.c.o)
                                                  C:\Users\moseichuk\AppData\Local\Temp\VMBuilds\TestSerial\Arduino_STM32_genericSTM32F103Z\Release\core.a(vector_table.S.o)
__irq_tim8_cc                                     C:\Users\moseichuk\AppData\Local\Temp\VMBuilds\TestSerial\Arduino_STM32_genericSTM32F103Z\Release\core.a(timer.c.o)
                                                  C:\Users\moseichuk\AppData\Local\Temp\VMBuilds\TestSerial\Arduino_STM32_genericSTM32F103Z\Release\core.a(vector_table.S.o)
__irq_tim8_trg_com                                C:\Users\moseichuk\AppData\Local\Temp\VMBuilds\TestSerial\Arduino_STM32_genericSTM32F103Z\Release\core.a(timer.c.o)
                                                  C:\Users\moseichuk\AppData\Local\Temp\VMBuilds\TestSerial\Arduino_STM32_genericSTM32F103Z\Release\core.a(vector_table.S.o)
__irq_tim8_up                                     C:\Users\moseichuk\AppData\Local\Temp\VMBuilds\TestSerial\Arduino_STM32_genericSTM32F103Z\Release\core.a(timer.c.o)
                                                  C:\Users\moseichuk\AppData\Local\Temp\VMBuilds\TestSerial\Arduino_STM32_genericSTM32F103Z\Release\core.a(vector_table.S.o)
__irq_uart4                                       C:\Users\moseichuk\AppData\Local\Temp\VMBuilds\TestSerial\Arduino_STM32_genericSTM32F103Z\Release\core.a(usart_f1.c.o)
                                                  C:\Users\moseichuk\AppData\Local\Temp\VMBuilds\TestSerial\Arduino_STM32_genericSTM32F103Z\Release\core.a(vector_table.S.o)
__irq_uart5                                       C:\Users\moseichuk\AppData\Local\Temp\VMBuilds\TestSerial\Arduino_STM32_genericSTM32F103Z\Release\core.a(usart_f1.c.o)
                                                  C:\Users\moseichuk\AppData\Local\Temp\VMBuilds\TestSerial\Arduino_STM32_genericSTM32F103Z\Release\core.a(vector_table.S.o)
__irq_usart1                                      C:\Users\moseichuk\AppData\Local\Temp\VMBuilds\TestSerial\Arduino_STM32_genericSTM32F103Z\Release\core.a(usart_f1.c.o)
                                                  C:\Users\moseichuk\AppData\Local\Temp\VMBuilds\TestSerial\Arduino_STM32_genericSTM32F103Z\Release\core.a(vector_table.S.o)
__irq_usart2                                      C:\Users\moseichuk\AppData\Local\Temp\VMBuilds\TestSerial\Arduino_STM32_genericSTM32F103Z\Release\core.a(usart_f1.c.o)
                                                  C:\Users\moseichuk\AppData\Local\Temp\VMBuilds\TestSerial\Arduino_STM32_genericSTM32F103Z\Release\core.a(vector_table.S.o)
__irq_usart3                                      C:\Users\moseichuk\AppData\Local\Temp\VMBuilds\TestSerial\Arduino_STM32_genericSTM32F103Z\Release\core.a(usart_f1.c.o)
                                                  C:\Users\moseichuk\AppData\Local\Temp\VMBuilds\TestSerial\Arduino_STM32_genericSTM32F103Z\Release\core.a(vector_table.S.o)
__irq_usb_hp_can_tx                               C:\Users\moseichuk\AppData\Local\Temp\VMBuilds\TestSerial\Arduino_STM32_genericSTM32F103Z\Release\core.a(isrs.S.o)
                                                  C:\Users\moseichuk\AppData\Local\Temp\VMBuilds\TestSerial\Arduino_STM32_genericSTM32F103Z\Release\core.a(vector_table.S.o)
__irq_usb_lp_can_rx0                              C:\Users\moseichuk\AppData\Local\Temp\VMBuilds\TestSerial\Arduino_STM32_genericSTM32F103Z\Release\core.a(usb.c.o)
                                                  C:\Users\moseichuk\AppData\Local\Temp\VMBuilds\TestSerial\Arduino_STM32_genericSTM32F103Z\Release\core.a(vector_table.S.o)
__irq_usbwakeup                                   C:\Users\moseichuk\AppData\Local\Temp\VMBuilds\TestSerial\Arduino_STM32_genericSTM32F103Z\Release\core.a(isrs.S.o)
                                                  C:\Users\moseichuk\AppData\Local\Temp\VMBuilds\TestSerial\Arduino_STM32_genericSTM32F103Z\Release\core.a(vector_table.S.o)
__irq_wwdg                                        C:\Users\moseichuk\AppData\Local\Temp\VMBuilds\TestSerial\Arduino_STM32_genericSTM32F103Z\Release\core.a(isrs.S.o)
                                                  C:\Users\moseichuk\AppData\Local\Temp\VMBuilds\TestSerial\Arduino_STM32_genericSTM32F103Z\Release\core.a(vector_table.S.o)
__ledf2                                           c:/users/moseichuk/appdata/local/arduino15/packages/arduino/tools/arm-none-eabi-gcc/4.8.3-2014q1/bin/../lib/gcc/arm-none-eabi/4.8.3/armv7-m\libgcc.a(_arm_cmpdf2.o)
__libc_fini                                       c:/users/moseichuk/appdata/local/arduino15/packages/arduino/tools/arm-none-eabi-gcc/4.8.3-2014q1/bin/../lib/gcc/arm-none-eabi/4.8.3/../../../../arm-none-eabi/lib/armv7-m\libc.a(lib_a-__call_atexit.o)
__libc_fini_array                                 c:/users/moseichuk/appdata/local/arduino15/packages/arduino/tools/arm-none-eabi-gcc/4.8.3-2014q1/bin/../lib/gcc/arm-none-eabi/4.8.3/../../../../arm-none-eabi/lib/armv7-m\libc.a(lib_a-fini.o)
                                                  c:/users/moseichuk/appdata/local/arduino15/packages/arduino/tools/arm-none-eabi-gcc/4.8.3-2014q1/bin/../lib/gcc/arm-none-eabi/4.8.3/../../../../arm-none-eabi/lib/armv7-m\libc.a(lib_a-__call_atexit.o)
                                                  c:/users/moseichuk/appdata/local/arduino15/packages/arduino/tools/arm-none-eabi-gcc/4.8.3-2014q1/bin/../lib/gcc/arm-none-eabi/4.8.3/../../../../arm-none-eabi/lib/armv7-m/crt0.o
__libc_init_array                                 c:/users/moseichuk/appdata/local/arduino15/packages/arduino/tools/arm-none-eabi-gcc/4.8.3-2014q1/bin/../lib/gcc/arm-none-eabi/4.8.3/../../../../arm-none-eabi/lib/armv7-m\libc.a(lib_a-init.o)
                                                  C:\Users\moseichuk\AppData\Local\Temp\VMBuilds\TestSerial\Arduino_STM32_genericSTM32F103Z\Release\variant\start_c.c.o
                                                  c:/users/moseichuk/appdata/local/arduino15/packages/arduino/tools/arm-none-eabi-gcc/4.8.3-2014q1/bin/../lib/gcc/arm-none-eabi/4.8.3/../../../../arm-none-eabi/lib/armv7-m/crt0.o
__lm_enable_error_usart                           C:\Users\moseichuk\AppData\Local\Temp\VMBuilds\TestSerial\Arduino_STM32_genericSTM32F103Z\Release\core.a(util.c.o)
__lm_error                                        C:\Users\moseichuk\AppData\Local\Temp\VMBuilds\TestSerial\Arduino_STM32_genericSTM32F103Z\Release\core.a(util.c.o)
__ltdf2                                           c:/users/moseichuk/appdata/local/arduino15/packages/arduino/tools/arm-none-eabi-gcc/4.8.3-2014q1/bin/../lib/gcc/arm-none-eabi/4.8.3/armv7-m\libgcc.a(_arm_cmpdf2.o)
__msp_init                                        C:\Users\moseichuk\AppData\Local\Temp\VMBuilds\TestSerial\Arduino_STM32_genericSTM32F103Z\Release\core.a(vector_table.S.o)
                                                  C:\Users\moseichuk\AppData\Local\Temp\VMBuilds\TestSerial\Arduino_STM32_genericSTM32F103Z\Release\variant\start.S.o
__muldf3                                          c:/users/moseichuk/appdata/local/arduino15/packages/arduino/tools/arm-none-eabi-gcc/4.8.3-2014q1/bin/../lib/gcc/arm-none-eabi/4.8.3/armv7-m\libgcc.a(_arm_muldivdf3.o)
__nedf2                                           c:/users/moseichuk/appdata/local/arduino15/packages/arduino/tools/arm-none-eabi-gcc/4.8.3-2014q1/bin/../lib/gcc/arm-none-eabi/4.8.3/armv7-m\libgcc.a(_arm_cmpdf2.o)
__preinit_array_end                               c:/users/moseichuk/appdata/local/arduino15/packages/arduino/tools/arm-none-eabi-gcc/4.8.3-2014q1/bin/../lib/gcc/arm-none-eabi/4.8.3/../../../../arm-none-eabi/lib/armv7-m\libc.a(lib_a-init.o)
__preinit_array_start                             c:/users/moseichuk/appdata/local/arduino15/packages/arduino/tools/arm-none-eabi-gcc/4.8.3-2014q1/bin/../lib/gcc/arm-none-eabi/4.8.3/../../../../arm-none-eabi/lib/armv7-m\libc.a(lib_a-init.o)
__register_exitproc                               c:/users/moseichuk/appdata/local/arduino15/packages/arduino/tools/arm-none-eabi-gcc/4.8.3-2014q1/bin/../lib/gcc/arm-none-eabi/4.8.3/../../../../arm-none-eabi/lib/armv7-m\libc.a(lib_a-__atexit.o)
                                                  c:/users/moseichuk/appdata/local/arduino15/packages/arduino/tools/arm-none-eabi-gcc/4.8.3-2014q1/bin/../lib/gcc/arm-none-eabi/4.8.3/../../../../arm-none-eabi/lib/armv7-m\libc.a(lib_a-atexit.o)
__register_frame_info                             c:/users/moseichuk/appdata/local/arduino15/packages/arduino/tools/arm-none-eabi-gcc/4.8.3-2014q1/bin/../lib/gcc/arm-none-eabi/4.8.3/armv7-m/crtbegin.o
__stack                                           c:/users/moseichuk/appdata/local/arduino15/packages/arduino/tools/arm-none-eabi-gcc/4.8.3-2014q1/bin/../lib/gcc/arm-none-eabi/4.8.3/../../../../arm-none-eabi/lib/armv7-m/crt0.o
__start__                                         C:\Users\moseichuk\AppData\Local\Temp\VMBuilds\TestSerial\Arduino_STM32_genericSTM32F103Z\Release\variant\start.S.o
__stm32_vector_table                              C:\Users\moseichuk\AppData\Local\Temp\VMBuilds\TestSerial\Arduino_STM32_genericSTM32F103Z\Release\core.a(vector_table.S.o)
__stm32reservedexception10                        C:\Users\moseichuk\AppData\Local\Temp\VMBuilds\TestSerial\Arduino_STM32_genericSTM32F103Z\Release\core.a(isrs.S.o)
                                                  C:\Users\moseichuk\AppData\Local\Temp\VMBuilds\TestSerial\Arduino_STM32_genericSTM32F103Z\Release\core.a(vector_table.S.o)
__stm32reservedexception13                        C:\Users\moseichuk\AppData\Local\Temp\VMBuilds\TestSerial\Arduino_STM32_genericSTM32F103Z\Release\core.a(isrs.S.o)
                                                  C:\Users\moseichuk\AppData\Local\Temp\VMBuilds\TestSerial\Arduino_STM32_genericSTM32F103Z\Release\core.a(vector_table.S.o)
__stm32reservedexception7                         C:\Users\moseichuk\AppData\Local\Temp\VMBuilds\TestSerial\Arduino_STM32_genericSTM32F103Z\Release\core.a(isrs.S.o)
                                                  C:\Users\moseichuk\AppData\Local\Temp\VMBuilds\TestSerial\Arduino_STM32_genericSTM32F103Z\Release\core.a(vector_table.S.o)
__stm32reservedexception8                         C:\Users\moseichuk\AppData\Local\Temp\VMBuilds\TestSerial\Arduino_STM32_genericSTM32F103Z\Release\core.a(isrs.S.o)
                                                  C:\Users\moseichuk\AppData\Local\Temp\VMBuilds\TestSerial\Arduino_STM32_genericSTM32F103Z\Release\core.a(vector_table.S.o)
__stm32reservedexception9                         C:\Users\moseichuk\AppData\Local\Temp\VMBuilds\TestSerial\Arduino_STM32_genericSTM32F103Z\Release\core.a(isrs.S.o)
                                                  C:\Users\moseichuk\AppData\Local\Temp\VMBuilds\TestSerial\Arduino_STM32_genericSTM32F103Z\Release\core.a(vector_table.S.o)
__subdf3                                          c:/users/moseichuk/appdata/local/arduino15/packages/arduino/tools/arm-none-eabi-gcc/4.8.3-2014q1/bin/../lib/gcc/arm-none-eabi/4.8.3/armv7-m\libgcc.a(_arm_addsubdf3.o)
__udivdi3                                         c:/users/moseichuk/appdata/local/arduino15/packages/arduino/tools/arm-none-eabi-gcc/4.8.3-2014q1/bin/../lib/gcc/arm-none-eabi/4.8.3/armv7-m\libgcc.a(_udivdi3.o)
                                                  c:/users/moseichuk/appdata/local/arduino15/packages/arduino/tools/arm-none-eabi-gcc/4.8.3-2014q1/bin/../lib/gcc/arm-none-eabi/4.8.3/armv7-m\libgcc.a(bpabi.o)
_close                                            C:\Users\moseichuk\AppData\Local\Temp\VMBuilds\TestSerial\Arduino_STM32_genericSTM32F103Z\Release\variant\syscalls.c.o
_dma_addr_type                                    C:\Users\moseichuk\AppData\Local\Temp\VMBuilds\TestSerial\Arduino_STM32_genericSTM32F103Z\Release\core.a(dma.c.o)
                                                  C:\Users\moseichuk\AppData\Local\Temp\VMBuilds\TestSerial\Arduino_STM32_genericSTM32F103Z\Release\core.a(dma_f1.c.o)
_exit                                             C:\Users\moseichuk\AppData\Local\Temp\VMBuilds\TestSerial\Arduino_STM32_genericSTM32F103Z\Release\variant\syscalls.c.o
                                                  c:/users/moseichuk/appdata/local/arduino15/packages/arduino/tools/arm-none-eabi-gcc/4.8.3-2014q1/bin/../lib/gcc/arm-none-eabi/4.8.3/../../../../arm-none-eabi/lib/armv7-m\libc.a(lib_a-exit.o)
_fail                                             C:\Users\moseichuk\AppData\Local\Temp\VMBuilds\TestSerial\Arduino_STM32_genericSTM32F103Z\Release\core.a(util.c.o)
_fini                                             c:/users/moseichuk/appdata/local/arduino15/packages/arduino/tools/arm-none-eabi-gcc/4.8.3-2014q1/bin/../lib/gcc/arm-none-eabi/4.8.3/armv7-m/crti.o
                                                  c:/users/moseichuk/appdata/local/arduino15/packages/arduino/tools/arm-none-eabi-gcc/4.8.3-2014q1/bin/../lib/gcc/arm-none-eabi/4.8.3/../../../../arm-none-eabi/lib/armv7-m\libc.a(lib_a-fini.o)
_fstat                                            C:\Users\moseichuk\AppData\Local\Temp\VMBuilds\TestSerial\Arduino_STM32_genericSTM32F103Z\Release\variant\syscalls.c.o
_global_impure_ptr                                c:/users/moseichuk/appdata/local/arduino15/packages/arduino/tools/arm-none-eabi-gcc/4.8.3-2014q1/bin/../lib/gcc/arm-none-eabi/4.8.3/../../../../arm-none-eabi/lib/armv7-m\libc.a(lib_a-impure.o)
                                                  c:/users/moseichuk/appdata/local/arduino15/packages/arduino/tools/arm-none-eabi-gcc/4.8.3-2014q1/bin/../lib/gcc/arm-none-eabi/4.8.3/../../../../arm-none-eabi/lib/armv7-m\libc.a(lib_a-__atexit.o)
                                                  c:/users/moseichuk/appdata/local/arduino15/packages/arduino/tools/arm-none-eabi-gcc/4.8.3-2014q1/bin/../lib/gcc/arm-none-eabi/4.8.3/../../../../arm-none-eabi/lib/armv7-m\libc.a(lib_a-__call_atexit.o)
                                                  c:/users/moseichuk/appdata/local/arduino15/packages/arduino/tools/arm-none-eabi-gcc/4.8.3-2014q1/bin/../lib/gcc/arm-none-eabi/4.8.3/../../../../arm-none-eabi/lib/armv7-m\libc.a(lib_a-exit.o)
_i2c_irq_error_handler                            C:\Users\moseichuk\AppData\Local\Temp\VMBuilds\TestSerial\Arduino_STM32_genericSTM32F103Z\Release\core.a(i2c.c.o)
                                                  C:\Users\moseichuk\AppData\Local\Temp\VMBuilds\TestSerial\Arduino_STM32_genericSTM32F103Z\Release\core.a(i2c_f1.c.o)
_i2c_irq_handler                                  C:\Users\moseichuk\AppData\Local\Temp\VMBuilds\TestSerial\Arduino_STM32_genericSTM32F103Z\Release\core.a(i2c.c.o)
                                                  C:\Users\moseichuk\AppData\Local\Temp\VMBuilds\TestSerial\Arduino_STM32_genericSTM32F103Z\Release\core.a(i2c_f1.c.o)
_i2c_irq_priority_fixup                           C:\Users\moseichuk\AppData\Local\Temp\VMBuilds\TestSerial\Arduino_STM32_genericSTM32F103Z\Release\core.a(i2c_f1.c.o)
                                                  C:\Users\moseichuk\AppData\Local\Temp\VMBuilds\TestSerial\Arduino_STM32_genericSTM32F103Z\Release\core.a(i2c.c.o)
_impure_ptr                                       c:/users/moseichuk/appdata/local/arduino15/packages/arduino/tools/arm-none-eabi-gcc/4.8.3-2014q1/bin/../lib/gcc/arm-none-eabi/4.8.3/../../../../arm-none-eabi/lib/armv7-m\libc.a(lib_a-impure.o)
                                                  c:/users/moseichuk/appdata/local/arduino15/packages/arduino/tools/arm-none-eabi-gcc/4.8.3-2014q1/bin/../lib/gcc/arm-none-eabi/4.8.3/../../../../arm-none-eabi/lib/armv7-m\libc.a(lib_a-errno.o)
_init                                             c:/users/moseichuk/appdata/local/arduino15/packages/arduino/tools/arm-none-eabi-gcc/4.8.3-2014q1/bin/../lib/gcc/arm-none-eabi/4.8.3/armv7-m/crti.o
                                                  c:/users/moseichuk/appdata/local/arduino15/packages/arduino/tools/arm-none-eabi-gcc/4.8.3-2014q1/bin/../lib/gcc/arm-none-eabi/4.8.3/../../../../arm-none-eabi/lib/armv7-m\libc.a(lib_a-init.o)
_isatty                                           C:\Users\moseichuk\AppData\Local\Temp\VMBuilds\TestSerial\Arduino_STM32_genericSTM32F103Z\Release\variant\syscalls.c.o
_lm_heap_end                                      C:\Users\moseichuk\AppData\Local\Temp\VMBuilds\TestSerial\Arduino_STM32_genericSTM32F103Z\Release\variant\syscalls.c.o
_lm_heap_start                                    C:\Users\moseichuk\AppData\Local\Temp\VMBuilds\TestSerial\Arduino_STM32_genericSTM32F103Z\Release\variant\syscalls.c.o
_lm_rom_img_cfgp                                  C:\Users\moseichuk\AppData\Local\Temp\VMBuilds\TestSerial\Arduino_STM32_genericSTM32F103Z\Release\variant\start_c.c.o
_lseek                                            C:\Users\moseichuk\AppData\Local\Temp\VMBuilds\TestSerial\Arduino_STM32_genericSTM32F103Z\Release\variant\syscalls.c.o
_mainCRTStartup                                   c:/users/moseichuk/appdata/local/arduino15/packages/arduino/tools/arm-none-eabi-gcc/4.8.3-2014q1/bin/../lib/gcc/arm-none-eabi/4.8.3/../../../../arm-none-eabi/lib/armv7-m/crt0.o
_open                                             C:\Users\moseichuk\AppData\Local\Temp\VMBuilds\TestSerial\Arduino_STM32_genericSTM32F103Z\Release\variant\syscalls.c.o
_read                                             C:\Users\moseichuk\AppData\Local\Temp\VMBuilds\TestSerial\Arduino_STM32_genericSTM32F103Z\Release\variant\syscalls.c.o
_sbrk                                             C:\Users\moseichuk\AppData\Local\Temp\VMBuilds\TestSerial\Arduino_STM32_genericSTM32F103Z\Release\variant\syscalls.c.o
_start                                            c:/users/moseichuk/appdata/local/arduino15/packages/arduino/tools/arm-none-eabi-gcc/4.8.3-2014q1/bin/../lib/gcc/arm-none-eabi/4.8.3/../../../../arm-none-eabi/lib/armv7-m/crt0.o
_usart_clock_freq                                 C:\Users\moseichuk\AppData\Local\Temp\VMBuilds\TestSerial\Arduino_STM32_genericSTM32F103Z\Release\core.a(usart_private.c.o)
                                                  C:\Users\moseichuk\AppData\Local\Temp\VMBuilds\TestSerial\Arduino_STM32_genericSTM32F103Z\Release\core.a(usart_f1.c.o)
_write                                            C:\Users\moseichuk\AppData\Local\Temp\VMBuilds\TestSerial\Arduino_STM32_genericSTM32F103Z\Release\variant\syscalls.c.o
abort                                             C:\Users\moseichuk\AppData\Local\Temp\VMBuilds\TestSerial\Arduino_STM32_genericSTM32F103Z\Release\core.a(util.c.o)
adc1                                              C:\Users\moseichuk\AppData\Local\Temp\VMBuilds\TestSerial\Arduino_STM32_genericSTM32F103Z\Release\core.a(adc_f1.c.o)
                                                  C:\Users\moseichuk\AppData\Local\Temp\VMBuilds\TestSerial\Arduino_STM32_genericSTM32F103Z\Release\variant\board.cpp.o
adc2                                              C:\Users\moseichuk\AppData\Local\Temp\VMBuilds\TestSerial\Arduino_STM32_genericSTM32F103Z\Release\core.a(adc_f1.c.o)
adc3                                              C:\Users\moseichuk\AppData\Local\Temp\VMBuilds\TestSerial\Arduino_STM32_genericSTM32F103Z\Release\core.a(adc_f1.c.o)
adc_attach_interrupt                              C:\Users\moseichuk\AppData\Local\Temp\VMBuilds\TestSerial\Arduino_STM32_genericSTM32F103Z\Release\core.a(adc_f1.c.o)
adc_calibrate                                     C:\Users\moseichuk\AppData\Local\Temp\VMBuilds\TestSerial\Arduino_STM32_genericSTM32F103Z\Release\core.a(adc_f1.c.o)
adc_config_gpio                                   C:\Users\moseichuk\AppData\Local\Temp\VMBuilds\TestSerial\Arduino_STM32_genericSTM32F103Z\Release\core.a(adc_f1.c.o)
adc_enable_irq                                    C:\Users\moseichuk\AppData\Local\Temp\VMBuilds\TestSerial\Arduino_STM32_genericSTM32F103Z\Release\core.a(adc_f1.c.o)
adc_enable_single_swstart                         C:\Users\moseichuk\AppData\Local\Temp\VMBuilds\TestSerial\Arduino_STM32_genericSTM32F103Z\Release\core.a(adc_f1.c.o)
                                                  C:\Users\moseichuk\AppData\Local\Temp\VMBuilds\TestSerial\Arduino_STM32_genericSTM32F103Z\Release\variant\boards.cpp.o
adc_foreach                                       C:\Users\moseichuk\AppData\Local\Temp\VMBuilds\TestSerial\Arduino_STM32_genericSTM32F103Z\Release\core.a(adc_f1.c.o)
                                                  C:\Users\moseichuk\AppData\Local\Temp\VMBuilds\TestSerial\Arduino_STM32_genericSTM32F103Z\Release\variant\boards.cpp.o
adc_init                                          C:\Users\moseichuk\AppData\Local\Temp\VMBuilds\TestSerial\Arduino_STM32_genericSTM32F103Z\Release\core.a(adc.c.o)
                                                  C:\Users\moseichuk\AppData\Local\Temp\VMBuilds\TestSerial\Arduino_STM32_genericSTM32F103Z\Release\core.a(adc_f1.c.o)
adc_read                                          C:\Users\moseichuk\AppData\Local\Temp\VMBuilds\TestSerial\Arduino_STM32_genericSTM32F103Z\Release\core.a(adc.c.o)
adc_set_extsel                                    C:\Users\moseichuk\AppData\Local\Temp\VMBuilds\TestSerial\Arduino_STM32_genericSTM32F103Z\Release\core.a(adc.c.o)
                                                  C:\Users\moseichuk\AppData\Local\Temp\VMBuilds\TestSerial\Arduino_STM32_genericSTM32F103Z\Release\core.a(adc_f1.c.o)
adc_set_prescaler                                 C:\Users\moseichuk\AppData\Local\Temp\VMBuilds\TestSerial\Arduino_STM32_genericSTM32F103Z\Release\core.a(adc_f1.c.o)
                                                  C:\Users\moseichuk\AppData\Local\Temp\VMBuilds\TestSerial\Arduino_STM32_genericSTM32F103Z\Release\variant\boards.cpp.o
adc_set_sample_rate                               C:\Users\moseichuk\AppData\Local\Temp\VMBuilds\TestSerial\Arduino_STM32_genericSTM32F103Z\Release\core.a(adc.c.o)
                                                  C:\Users\moseichuk\AppData\Local\Temp\VMBuilds\TestSerial\Arduino_STM32_genericSTM32F103Z\Release\variant\boards.cpp.o
afio_init                                         C:\Users\moseichuk\AppData\Local\Temp\VMBuilds\TestSerial\Arduino_STM32_genericSTM32F103Z\Release\core.a(gpio_f1.c.o)
                                                  C:\Users\moseichuk\AppData\Local\Temp\VMBuilds\TestSerial\Arduino_STM32_genericSTM32F103Z\Release\variant\boards_setup.cpp.o
afio_remap                                        C:\Users\moseichuk\AppData\Local\Temp\VMBuilds\TestSerial\Arduino_STM32_genericSTM32F103Z\Release\core.a(gpio_f1.c.o)
                                                  C:\Users\moseichuk\AppData\Local\Temp\VMBuilds\TestSerial\Arduino_STM32_genericSTM32F103Z\Release\core.a(i2c.c.o)
                                                  C:\Users\moseichuk\AppData\Local\Temp\VMBuilds\TestSerial\Arduino_STM32_genericSTM32F103Z\Release\core.a(i2c_f1.c.o)
atexit                                            c:/users/moseichuk/appdata/local/arduino15/packages/arduino/tools/arm-none-eabi-gcc/4.8.3-2014q1/bin/../lib/gcc/arm-none-eabi/4.8.3/../../../../arm-none-eabi/lib/armv7-m\libc.a(lib_a-atexit.o)
                                                  c:/users/moseichuk/appdata/local/arduino15/packages/arduino/tools/arm-none-eabi-gcc/4.8.3-2014q1/bin/../lib/gcc/arm-none-eabi/4.8.3/../../../../arm-none-eabi/lib/armv7-m\libc.a(lib_a-__call_atexit.o)
                                                  c:/users/moseichuk/appdata/local/arduino15/packages/arduino/tools/arm-none-eabi-gcc/4.8.3-2014q1/bin/../lib/gcc/arm-none-eabi/4.8.3/../../../../arm-none-eabi/lib/armv7-m/crt0.o
bkp                                               C:\Users\moseichuk\AppData\Local\Temp\VMBuilds\TestSerial\Arduino_STM32_genericSTM32F103Z\Release\core.a(bkp_f1.c.o)
bkp_disable_writes                                C:\Users\moseichuk\AppData\Local\Temp\VMBuilds\TestSerial\Arduino_STM32_genericSTM32F103Z\Release\core.a(bkp_f1.c.o)
                                                  C:\Users\moseichuk\AppData\Local\Temp\VMBuilds\TestSerial\Arduino_STM32_genericSTM32F103Z\Release\core.a(usb_serial.cpp.o)
bkp_enable_writes                                 C:\Users\moseichuk\AppData\Local\Temp\VMBuilds\TestSerial\Arduino_STM32_genericSTM32F103Z\Release\core.a(bkp_f1.c.o)
                                                  C:\Users\moseichuk\AppData\Local\Temp\VMBuilds\TestSerial\Arduino_STM32_genericSTM32F103Z\Release\core.a(usb_serial.cpp.o)
bkp_init                                          C:\Users\moseichuk\AppData\Local\Temp\VMBuilds\TestSerial\Arduino_STM32_genericSTM32F103Z\Release\core.a(bkp_f1.c.o)
                                                  C:\Users\moseichuk\AppData\Local\Temp\VMBuilds\TestSerial\Arduino_STM32_genericSTM32F103Z\Release\core.a(usb_serial.cpp.o)
bkp_read                                          C:\Users\moseichuk\AppData\Local\Temp\VMBuilds\TestSerial\Arduino_STM32_genericSTM32F103Z\Release\core.a(bkp_f1.c.o)
bkp_write                                         C:\Users\moseichuk\AppData\Local\Temp\VMBuilds\TestSerial\Arduino_STM32_genericSTM32F103Z\Release\core.a(bkp_f1.c.o)
                                                  C:\Users\moseichuk\AppData\Local\Temp\VMBuilds\TestSerial\Arduino_STM32_genericSTM32F103Z\Release\core.a(usb_serial.cpp.o)
boardADCPins                                      C:\Users\moseichuk\AppData\Local\Temp\VMBuilds\TestSerial\Arduino_STM32_genericSTM32F103Z\Release\variant\board.cpp.o
boardInit()                                       C:\Users\moseichuk\AppData\Local\Temp\VMBuilds\TestSerial\Arduino_STM32_genericSTM32F103Z\Release\variant\boards.cpp.o
boardPWMPins                                      C:\Users\moseichuk\AppData\Local\Temp\VMBuilds\TestSerial\Arduino_STM32_genericSTM32F103Z\Release\variant\board.cpp.o
boardUsedPins                                     C:\Users\moseichuk\AppData\Local\Temp\VMBuilds\TestSerial\Arduino_STM32_genericSTM32F103Z\Release\variant\board.cpp.o
                                                  C:\Users\moseichuk\AppData\Local\Temp\VMBuilds\TestSerial\Arduino_STM32_genericSTM32F103Z\Release\variant\boards.cpp.o
boardUsesPin(unsigned char)                       C:\Users\moseichuk\AppData\Local\Temp\VMBuilds\TestSerial\Arduino_STM32_genericSTM32F103Z\Release\variant\boards.cpp.o
cgets                                             C:\Users\moseichuk\AppData\Local\Temp\VMBuilds\TestSerial\Arduino_STM32_genericSTM32F103Z\Release\variant\syscalls.c.o
dma_attach_interrupt                              C:\Users\moseichuk\AppData\Local\Temp\VMBuilds\TestSerial\Arduino_STM32_genericSTM32F103Z\Release\core.a(dma_f1.c.o)
dma_detach_interrupt                              C:\Users\moseichuk\AppData\Local\Temp\VMBuilds\TestSerial\Arduino_STM32_genericSTM32F103Z\Release\core.a(dma_f1.c.o)
dma_disable                                       C:\Users\moseichuk\AppData\Local\Temp\VMBuilds\TestSerial\Arduino_STM32_genericSTM32F103Z\Release\core.a(dma_f1.c.o)
dma_enable                                        C:\Users\moseichuk\AppData\Local\Temp\VMBuilds\TestSerial\Arduino_STM32_genericSTM32F103Z\Release\core.a(dma_f1.c.o)
dma_get_irq_cause                                 C:\Users\moseichuk\AppData\Local\Temp\VMBuilds\TestSerial\Arduino_STM32_genericSTM32F103Z\Release\core.a(dma_f1.c.o)
dma_init                                          C:\Users\moseichuk\AppData\Local\Temp\VMBuilds\TestSerial\Arduino_STM32_genericSTM32F103Z\Release\core.a(dma.c.o)
dma_set_mem_addr                                  C:\Users\moseichuk\AppData\Local\Temp\VMBuilds\TestSerial\Arduino_STM32_genericSTM32F103Z\Release\core.a(dma_f1.c.o)
dma_set_num_transfers                             C:\Users\moseichuk\AppData\Local\Temp\VMBuilds\TestSerial\Arduino_STM32_genericSTM32F103Z\Release\core.a(dma_f1.c.o)
dma_set_per_addr                                  C:\Users\moseichuk\AppData\Local\Temp\VMBuilds\TestSerial\Arduino_STM32_genericSTM32F103Z\Release\core.a(dma_f1.c.o)
dma_set_priority                                  C:\Users\moseichuk\AppData\Local\Temp\VMBuilds\TestSerial\Arduino_STM32_genericSTM32F103Z\Release\core.a(dma_f1.c.o)
dma_setup_transfer                                C:\Users\moseichuk\AppData\Local\Temp\VMBuilds\TestSerial\Arduino_STM32_genericSTM32F103Z\Release\core.a(dma_f1.c.o)
dma_tube_cfg                                      C:\Users\moseichuk\AppData\Local\Temp\VMBuilds\TestSerial\Arduino_STM32_genericSTM32F103Z\Release\core.a(dma_f1.c.o)
exit                                              c:/users/moseichuk/appdata/local/arduino15/packages/arduino/tools/arm-none-eabi-gcc/4.8.3-2014q1/bin/../lib/gcc/arm-none-eabi/4.8.3/../../../../arm-none-eabi/lib/armv7-m\libc.a(lib_a-exit.o)
                                                  C:\Users\moseichuk\AppData\Local\Temp\VMBuilds\TestSerial\Arduino_STM32_genericSTM32F103Z\Release\variant\start_c.c.o
                                                  c:/users/moseichuk/appdata/local/arduino15/packages/arduino/tools/arm-none-eabi-gcc/4.8.3-2014q1/bin/../lib/gcc/arm-none-eabi/4.8.3/../../../../arm-none-eabi/lib/armv7-m/crt0.o
exti_attach_callback                              C:\Users\moseichuk\AppData\Local\Temp\VMBuilds\TestSerial\Arduino_STM32_genericSTM32F103Z\Release\core.a(exti.c.o)
exti_attach_interrupt                             C:\Users\moseichuk\AppData\Local\Temp\VMBuilds\TestSerial\Arduino_STM32_genericSTM32F103Z\Release\core.a(exti.c.o)
exti_detach_interrupt                             C:\Users\moseichuk\AppData\Local\Temp\VMBuilds\TestSerial\Arduino_STM32_genericSTM32F103Z\Release\core.a(exti.c.o)
exti_do_select                                    C:\Users\moseichuk\AppData\Local\Temp\VMBuilds\TestSerial\Arduino_STM32_genericSTM32F103Z\Release\core.a(exti.c.o)
                                                  C:\Users\moseichuk\AppData\Local\Temp\VMBuilds\TestSerial\Arduino_STM32_genericSTM32F103Z\Release\core.a(exti_f1.c.o)
exti_select                                       C:\Users\moseichuk\AppData\Local\Temp\VMBuilds\TestSerial\Arduino_STM32_genericSTM32F103Z\Release\core.a(exti_f1.c.o)
                                                  C:\Users\moseichuk\AppData\Local\Temp\VMBuilds\TestSerial\Arduino_STM32_genericSTM32F103Z\Release\core.a(exti.c.o)
fgets                                             C:\Users\moseichuk\AppData\Local\Temp\VMBuilds\TestSerial\Arduino_STM32_genericSTM32F103Z\Release\variant\syscalls.c.o
flash_set_latency                                 C:\Users\moseichuk\AppData\Local\Temp\VMBuilds\TestSerial\Arduino_STM32_genericSTM32F103Z\Release\core.a(flash.c.o)
                                                  C:\Users\moseichuk\AppData\Local\Temp\VMBuilds\TestSerial\Arduino_STM32_genericSTM32F103Z\Release\variant\boards.cpp.o
free                                              c:/users/moseichuk/appdata/local/arduino15/packages/arduino/tools/arm-none-eabi-gcc/4.8.3-2014q1/bin/../lib/gcc/arm-none-eabi/4.8.3/../../../../arm-none-eabi/lib/armv7-m\libc.a(lib_a-__call_atexit.o)
get_direction                                     C:\Users\moseichuk\AppData\Local\Temp\VMBuilds\TestSerial\Arduino_STM32_genericSTM32F103Z\Release\core.a(timer.c.o)
getch                                             C:\Users\moseichuk\AppData\Local\Temp\VMBuilds\TestSerial\Arduino_STM32_genericSTM32F103Z\Release\variant\syscalls.c.o
gpio_get_mode                                     C:\Users\moseichuk\AppData\Local\Temp\VMBuilds\TestSerial\Arduino_STM32_genericSTM32F103Z\Release\core.a(gpio_f1.c.o)
gpio_init                                         C:\Users\moseichuk\AppData\Local\Temp\VMBuilds\TestSerial\Arduino_STM32_genericSTM32F103Z\Release\core.a(gpio.c.o)
                                                  C:\Users\moseichuk\AppData\Local\Temp\VMBuilds\TestSerial\Arduino_STM32_genericSTM32F103Z\Release\core.a(gpio_f1.c.o)
gpio_init_all                                     C:\Users\moseichuk\AppData\Local\Temp\VMBuilds\TestSerial\Arduino_STM32_genericSTM32F103Z\Release\core.a(gpio_f1.c.o)
                                                  C:\Users\moseichuk\AppData\Local\Temp\VMBuilds\TestSerial\Arduino_STM32_genericSTM32F103Z\Release\variant\boards_setup.cpp.o
gpio_set_mode                                     C:\Users\moseichuk\AppData\Local\Temp\VMBuilds\TestSerial\Arduino_STM32_genericSTM32F103Z\Release\core.a(gpio_f1.c.o)
                                                  C:\Users\moseichuk\AppData\Local\Temp\VMBuilds\TestSerial\Arduino_STM32_genericSTM32F103Z\Release\core.a(usb_cdcacm.c.o)
                                                  C:\Users\moseichuk\AppData\Local\Temp\VMBuilds\TestSerial\Arduino_STM32_genericSTM32F103Z\Release\core.a(util.c.o)
                                                  C:\Users\moseichuk\AppData\Local\Temp\VMBuilds\TestSerial\Arduino_STM32_genericSTM32F103Z\Release\core.a(usart_f1.c.o)
                                                  C:\Users\moseichuk\AppData\Local\Temp\VMBuilds\TestSerial\Arduino_STM32_genericSTM32F103Z\Release\core.a(i2c_f1.c.o)
                                                  C:\Users\moseichuk\AppData\Local\Temp\VMBuilds\TestSerial\Arduino_STM32_genericSTM32F103Z\Release\core.a(adc_f1.c.o)
                                                  C:\Users\moseichuk\AppData\Local\Temp\VMBuilds\TestSerial\Arduino_STM32_genericSTM32F103Z\Release\variant\boards_setup.cpp.o
gpioa                                             C:\Users\moseichuk\AppData\Local\Temp\VMBuilds\TestSerial\Arduino_STM32_genericSTM32F103Z\Release\core.a(gpio_f1.c.o)
                                                  C:\Users\moseichuk\AppData\Local\Temp\VMBuilds\TestSerial\Arduino_STM32_genericSTM32F103Z\Release\variant\board.cpp.o
gpiob                                             C:\Users\moseichuk\AppData\Local\Temp\VMBuilds\TestSerial\Arduino_STM32_genericSTM32F103Z\Release\core.a(gpio_f1.c.o)
                                                  C:\Users\moseichuk\AppData\Local\Temp\VMBuilds\TestSerial\Arduino_STM32_genericSTM32F103Z\Release\core.a(i2c_f1.c.o)
                                                  C:\Users\moseichuk\AppData\Local\Temp\VMBuilds\TestSerial\Arduino_STM32_genericSTM32F103Z\Release\variant\board.cpp.o
gpioc                                             C:\Users\moseichuk\AppData\Local\Temp\VMBuilds\TestSerial\Arduino_STM32_genericSTM32F103Z\Release\core.a(gpio_f1.c.o)
                                                  C:\Users\moseichuk\AppData\Local\Temp\VMBuilds\TestSerial\Arduino_STM32_genericSTM32F103Z\Release\variant\board.cpp.o
gpiod                                             C:\Users\moseichuk\AppData\Local\Temp\VMBuilds\TestSerial\Arduino_STM32_genericSTM32F103Z\Release\core.a(gpio_f1.c.o)
                                                  C:\Users\moseichuk\AppData\Local\Temp\VMBuilds\TestSerial\Arduino_STM32_genericSTM32F103Z\Release\variant\board.cpp.o
gpioe                                             C:\Users\moseichuk\AppData\Local\Temp\VMBuilds\TestSerial\Arduino_STM32_genericSTM32F103Z\Release\core.a(gpio_f1.c.o)
                                                  C:\Users\moseichuk\AppData\Local\Temp\VMBuilds\TestSerial\Arduino_STM32_genericSTM32F103Z\Release\variant\board.cpp.o
gpiof                                             C:\Users\moseichuk\AppData\Local\Temp\VMBuilds\TestSerial\Arduino_STM32_genericSTM32F103Z\Release\core.a(gpio_f1.c.o)
                                                  C:\Users\moseichuk\AppData\Local\Temp\VMBuilds\TestSerial\Arduino_STM32_genericSTM32F103Z\Release\variant\board.cpp.o
gpiog                                             C:\Users\moseichuk\AppData\Local\Temp\VMBuilds\TestSerial\Arduino_STM32_genericSTM32F103Z\Release\core.a(gpio_f1.c.o)
                                                  C:\Users\moseichuk\AppData\Local\Temp\VMBuilds\TestSerial\Arduino_STM32_genericSTM32F103Z\Release\variant\board.cpp.o
hardware_init_hook                                c:/users/moseichuk/appdata/local/arduino15/packages/arduino/tools/arm-none-eabi-gcc/4.8.3-2014q1/bin/../lib/gcc/arm-none-eabi/4.8.3/../../../../arm-none-eabi/lib/armv7-m/crt0.o
i2c_bus_reset                                     C:\Users\moseichuk\AppData\Local\Temp\VMBuilds\TestSerial\Arduino_STM32_genericSTM32F103Z\Release\core.a(i2c.c.o)
i2c_config_gpios                                  C:\Users\moseichuk\AppData\Local\Temp\VMBuilds\TestSerial\Arduino_STM32_genericSTM32F103Z\Release\core.a(i2c_f1.c.o)
                                                  C:\Users\moseichuk\AppData\Local\Temp\VMBuilds\TestSerial\Arduino_STM32_genericSTM32F103Z\Release\core.a(i2c.c.o)
i2c_init                                          C:\Users\moseichuk\AppData\Local\Temp\VMBuilds\TestSerial\Arduino_STM32_genericSTM32F103Z\Release\core.a(i2c.c.o)
i2c_master_enable                                 C:\Users\moseichuk\AppData\Local\Temp\VMBuilds\TestSerial\Arduino_STM32_genericSTM32F103Z\Release\core.a(i2c.c.o)
i2c_master_release_bus                            C:\Users\moseichuk\AppData\Local\Temp\VMBuilds\TestSerial\Arduino_STM32_genericSTM32F103Z\Release\core.a(i2c_f1.c.o)
                                                  C:\Users\moseichuk\AppData\Local\Temp\VMBuilds\TestSerial\Arduino_STM32_genericSTM32F103Z\Release\core.a(i2c.c.o)
i2c_master_xfer                                   C:\Users\moseichuk\AppData\Local\Temp\VMBuilds\TestSerial\Arduino_STM32_genericSTM32F103Z\Release\core.a(i2c.c.o)
init()                                            C:\Users\moseichuk\AppData\Local\Temp\VMBuilds\TestSerial\Arduino_STM32_genericSTM32F103Z\Release\variant\boards.cpp.o
                                                  C:\Users\moseichuk\AppData\Local\Temp\VMBuilds\TestSerial\Arduino_STM32_genericSTM32F103Z\Release\core.a(main.cpp.o)
input_capture_mode                                C:\Users\moseichuk\AppData\Local\Temp\VMBuilds\TestSerial\Arduino_STM32_genericSTM32F103Z\Release\core.a(timer.c.o)
isatty                                            C:\Users\moseichuk\AppData\Local\Temp\VMBuilds\TestSerial\Arduino_STM32_genericSTM32F103Z\Release\variant\syscalls.c.o
loop()                                            C:\Users\moseichuk\AppData\Local\Temp\VMBuilds\TestSerial\Arduino_STM32_genericSTM32F103Z\Release\TestSerial.cpp.o
                                                  C:\Users\moseichuk\AppData\Local\Temp\VMBuilds\TestSerial\Arduino_STM32_genericSTM32F103Z\Release\core.a(main.cpp.o)
main                                              C:\Users\moseichuk\AppData\Local\Temp\VMBuilds\TestSerial\Arduino_STM32_genericSTM32F103Z\Release\core.a(main.cpp.o)
                                                  C:\Users\moseichuk\AppData\Local\Temp\VMBuilds\TestSerial\Arduino_STM32_genericSTM32F103Z\Release\variant\start_c.c.o
                                                  c:/users/moseichuk/appdata/local/arduino15/packages/arduino/tools/arm-none-eabi-gcc/4.8.3-2014q1/bin/../lib/gcc/arm-none-eabi/4.8.3/../../../../arm-none-eabi/lib/armv7-m/crt0.o
malloc                                            c:/users/moseichuk/appdata/local/arduino15/packages/arduino/tools/arm-none-eabi-gcc/4.8.3-2014q1/bin/../lib/gcc/arm-none-eabi/4.8.3/../../../../arm-none-eabi/lib/armv7-m\libc.a(lib_a-__atexit.o)
memset                                            c:/users/moseichuk/appdata/local/arduino15/packages/arduino/tools/arm-none-eabi-gcc/4.8.3-2014q1/bin/../lib/gcc/arm-none-eabi/4.8.3/../../../../arm-none-eabi/lib/armv7-m\libc.a(lib_a-memset.o)
                                                  c:/users/moseichuk/appdata/local/arduino15/packages/arduino/tools/arm-none-eabi-gcc/4.8.3-2014q1/bin/../lib/gcc/arm-none-eabi/4.8.3/../../../../arm-none-eabi/lib/armv7-m/crt0.o
nvic_init                                         C:\Users\moseichuk\AppData\Local\Temp\VMBuilds\TestSerial\Arduino_STM32_genericSTM32F103Z\Release\core.a(nvic.c.o)
                                                  C:\Users\moseichuk\AppData\Local\Temp\VMBuilds\TestSerial\Arduino_STM32_genericSTM32F103Z\Release\variant\boards.cpp.o
nvic_irq_set_priority                             C:\Users\moseichuk\AppData\Local\Temp\VMBuilds\TestSerial\Arduino_STM32_genericSTM32F103Z\Release\core.a(nvic.c.o)
                                                  C:\Users\moseichuk\AppData\Local\Temp\VMBuilds\TestSerial\Arduino_STM32_genericSTM32F103Z\Release\core.a(i2c_f1.c.o)
nvic_set_vector_table                             C:\Users\moseichuk\AppData\Local\Temp\VMBuilds\TestSerial\Arduino_STM32_genericSTM32F103Z\Release\core.a(nvic.c.o)
nvic_sys_reset                                    C:\Users\moseichuk\AppData\Local\Temp\VMBuilds\TestSerial\Arduino_STM32_genericSTM32F103Z\Release\core.a(nvic.c.o)
                                                  C:\Users\moseichuk\AppData\Local\Temp\VMBuilds\TestSerial\Arduino_STM32_genericSTM32F103Z\Release\core.a(usb_serial.cpp.o)
pInformation                                      C:\Users\moseichuk\AppData\Local\Temp\VMBuilds\TestSerial\Arduino_STM32_genericSTM32F103Z\Release\core.a(usb_init.c.o)
                                                  C:\Users\moseichuk\AppData\Local\Temp\VMBuilds\TestSerial\Arduino_STM32_genericSTM32F103Z\Release\core.a(usb_core.c.o)
                                                  C:\Users\moseichuk\AppData\Local\Temp\VMBuilds\TestSerial\Arduino_STM32_genericSTM32F103Z\Release\core.a(usb_cdcacm.c.o)
                                                  C:\Users\moseichuk\AppData\Local\Temp\VMBuilds\TestSerial\Arduino_STM32_genericSTM32F103Z\Release\core.a(usb.c.o)
pProperty                                         C:\Users\moseichuk\AppData\Local\Temp\VMBuilds\TestSerial\Arduino_STM32_genericSTM32F103Z\Release\core.a(usb_init.c.o)
                                                  C:\Users\moseichuk\AppData\Local\Temp\VMBuilds\TestSerial\Arduino_STM32_genericSTM32F103Z\Release\core.a(usb_core.c.o)
                                                  C:\Users\moseichuk\AppData\Local\Temp\VMBuilds\TestSerial\Arduino_STM32_genericSTM32F103Z\Release\core.a(usb_cdcacm.c.o)
                                                  C:\Users\moseichuk\AppData\Local\Temp\VMBuilds\TestSerial\Arduino_STM32_genericSTM32F103Z\Release\core.a(usb.c.o)
pUser_Standard_Requests                           C:\Users\moseichuk\AppData\Local\Temp\VMBuilds\TestSerial\Arduino_STM32_genericSTM32F103Z\Release\core.a(usb_init.c.o)
                                                  C:\Users\moseichuk\AppData\Local\Temp\VMBuilds\TestSerial\Arduino_STM32_genericSTM32F103Z\Release\core.a(usb_core.c.o)
                                                  C:\Users\moseichuk\AppData\Local\Temp\VMBuilds\TestSerial\Arduino_STM32_genericSTM32F103Z\Release\core.a(usb.c.o)
premain()                                         C:\Users\moseichuk\AppData\Local\Temp\VMBuilds\TestSerial\Arduino_STM32_genericSTM32F103Z\Release\core.a(main.cpp.o)
putch                                             C:\Users\moseichuk\AppData\Local\Temp\VMBuilds\TestSerial\Arduino_STM32_genericSTM32F103Z\Release\variant\syscalls.c.o
rcc_clk_disable                                   C:\Users\moseichuk\AppData\Local\Temp\VMBuilds\TestSerial\Arduino_STM32_genericSTM32F103Z\Release\core.a(rcc_f1.c.o)
                                                  C:\Users\moseichuk\AppData\Local\Temp\VMBuilds\TestSerial\Arduino_STM32_genericSTM32F103Z\Release\variant\boards_setup.cpp.o
rcc_clk_enable                                    C:\Users\moseichuk\AppData\Local\Temp\VMBuilds\TestSerial\Arduino_STM32_genericSTM32F103Z\Release\core.a(rcc_f1.c.o)
                                                  C:\Users\moseichuk\AppData\Local\Temp\VMBuilds\TestSerial\Arduino_STM32_genericSTM32F103Z\Release\core.a(usart.c.o)
                                                  C:\Users\moseichuk\AppData\Local\Temp\VMBuilds\TestSerial\Arduino_STM32_genericSTM32F103Z\Release\core.a(i2c.c.o)
                                                  C:\Users\moseichuk\AppData\Local\Temp\VMBuilds\TestSerial\Arduino_STM32_genericSTM32F103Z\Release\core.a(gpio.c.o)
                                                  C:\Users\moseichuk\AppData\Local\Temp\VMBuilds\TestSerial\Arduino_STM32_genericSTM32F103Z\Release\core.a(dma.c.o)
                                                  C:\Users\moseichuk\AppData\Local\Temp\VMBuilds\TestSerial\Arduino_STM32_genericSTM32F103Z\Release\core.a(bkp_f1.c.o)
                                                  C:\Users\moseichuk\AppData\Local\Temp\VMBuilds\TestSerial\Arduino_STM32_genericSTM32F103Z\Release\core.a(usb.c.o)
                                                  C:\Users\moseichuk\AppData\Local\Temp\VMBuilds\TestSerial\Arduino_STM32_genericSTM32F103Z\Release\core.a(timer.c.o)
                                                  C:\Users\moseichuk\AppData\Local\Temp\VMBuilds\TestSerial\Arduino_STM32_genericSTM32F103Z\Release\core.a(gpio_f1.c.o)
                                                  C:\Users\moseichuk\AppData\Local\Temp\VMBuilds\TestSerial\Arduino_STM32_genericSTM32F103Z\Release\core.a(adc.c.o)
rcc_clk_init                                      C:\Users\moseichuk\AppData\Local\Temp\VMBuilds\TestSerial\Arduino_STM32_genericSTM32F103Z\Release\core.a(rcc_f1.c.o)
rcc_configure_pll                                 C:\Users\moseichuk\AppData\Local\Temp\VMBuilds\TestSerial\Arduino_STM32_genericSTM32F103Z\Release\core.a(rcc_f1.c.o)
                                                  C:\Users\moseichuk\AppData\Local\Temp\VMBuilds\TestSerial\Arduino_STM32_genericSTM32F103Z\Release\variant\boards.cpp.o
rcc_dev_clk                                       C:\Users\moseichuk\AppData\Local\Temp\VMBuilds\TestSerial\Arduino_STM32_genericSTM32F103Z\Release\core.a(rcc.c.o)
                                                  C:\Users\moseichuk\AppData\Local\Temp\VMBuilds\TestSerial\Arduino_STM32_genericSTM32F103Z\Release\core.a(usart_private.c.o)
                                                  C:\Users\moseichuk\AppData\Local\Temp\VMBuilds\TestSerial\Arduino_STM32_genericSTM32F103Z\Release\core.a(rcc_f1.c.o)
rcc_dev_table                                     C:\Users\moseichuk\AppData\Local\Temp\VMBuilds\TestSerial\Arduino_STM32_genericSTM32F103Z\Release\core.a(rcc_f1.c.o)
                                                  C:\Users\moseichuk\AppData\Local\Temp\VMBuilds\TestSerial\Arduino_STM32_genericSTM32F103Z\Release\core.a(rcc.c.o)
rcc_is_clk_on                                     C:\Users\moseichuk\AppData\Local\Temp\VMBuilds\TestSerial\Arduino_STM32_genericSTM32F103Z\Release\core.a(rcc.c.o)
rcc_is_clk_ready                                  C:\Users\moseichuk\AppData\Local\Temp\VMBuilds\TestSerial\Arduino_STM32_genericSTM32F103Z\Release\core.a(rcc.c.o)
                                                  C:\Users\moseichuk\AppData\Local\Temp\VMBuilds\TestSerial\Arduino_STM32_genericSTM32F103Z\Release\core.a(rcc_f1.c.o)
                                                  C:\Users\moseichuk\AppData\Local\Temp\VMBuilds\TestSerial\Arduino_STM32_genericSTM32F103Z\Release\variant\boards.cpp.o
rcc_reset_dev                                     C:\Users\moseichuk\AppData\Local\Temp\VMBuilds\TestSerial\Arduino_STM32_genericSTM32F103Z\Release\core.a(rcc_f1.c.o)
                                                  C:\Users\moseichuk\AppData\Local\Temp\VMBuilds\TestSerial\Arduino_STM32_genericSTM32F103Z\Release\core.a(i2c.c.o)
                                                  C:\Users\moseichuk\AppData\Local\Temp\VMBuilds\TestSerial\Arduino_STM32_genericSTM32F103Z\Release\core.a(gpio.c.o)
                                                  C:\Users\moseichuk\AppData\Local\Temp\VMBuilds\TestSerial\Arduino_STM32_genericSTM32F103Z\Release\core.a(bkp_f1.c.o)
                                                  C:\Users\moseichuk\AppData\Local\Temp\VMBuilds\TestSerial\Arduino_STM32_genericSTM32F103Z\Release\core.a(timer.c.o)
                                                  C:\Users\moseichuk\AppData\Local\Temp\VMBuilds\TestSerial\Arduino_STM32_genericSTM32F103Z\Release\core.a(gpio_f1.c.o)
                                                  C:\Users\moseichuk\AppData\Local\Temp\VMBuilds\TestSerial\Arduino_STM32_genericSTM32F103Z\Release\core.a(adc.c.o)
rcc_set_prescaler                                 C:\Users\moseichuk\AppData\Local\Temp\VMBuilds\TestSerial\Arduino_STM32_genericSTM32F103Z\Release\core.a(rcc_f1.c.o)
                                                  C:\Users\moseichuk\AppData\Local\Temp\VMBuilds\TestSerial\Arduino_STM32_genericSTM32F103Z\Release\core.a(adc_f1.c.o)
                                                  C:\Users\moseichuk\AppData\Local\Temp\VMBuilds\TestSerial\Arduino_STM32_genericSTM32F103Z\Release\variant\boards_setup.cpp.o
rcc_switch_sysclk                                 C:\Users\moseichuk\AppData\Local\Temp\VMBuilds\TestSerial\Arduino_STM32_genericSTM32F103Z\Release\core.a(rcc.c.o)
                                                  C:\Users\moseichuk\AppData\Local\Temp\VMBuilds\TestSerial\Arduino_STM32_genericSTM32F103Z\Release\core.a(rcc_f1.c.o)
                                                  C:\Users\moseichuk\AppData\Local\Temp\VMBuilds\TestSerial\Arduino_STM32_genericSTM32F103Z\Release\variant\boards.cpp.o
rcc_turn_off_clk                                  C:\Users\moseichuk\AppData\Local\Temp\VMBuilds\TestSerial\Arduino_STM32_genericSTM32F103Z\Release\core.a(rcc.c.o)
                                                  C:\Users\moseichuk\AppData\Local\Temp\VMBuilds\TestSerial\Arduino_STM32_genericSTM32F103Z\Release\variant\boards.cpp.o
rcc_turn_on_clk                                   C:\Users\moseichuk\AppData\Local\Temp\VMBuilds\TestSerial\Arduino_STM32_genericSTM32F103Z\Release\core.a(rcc.c.o)
                                                  C:\Users\moseichuk\AppData\Local\Temp\VMBuilds\TestSerial\Arduino_STM32_genericSTM32F103Z\Release\core.a(rcc_f1.c.o)
                                                  C:\Users\moseichuk\AppData\Local\Temp\VMBuilds\TestSerial\Arduino_STM32_genericSTM32F103Z\Release\variant\boards.cpp.o
setup()                                           C:\Users\moseichuk\AppData\Local\Temp\VMBuilds\TestSerial\Arduino_STM32_genericSTM32F103Z\Release\TestSerial.cpp.o
                                                  C:\Users\moseichuk\AppData\Local\Temp\VMBuilds\TestSerial\Arduino_STM32_genericSTM32F103Z\Release\core.a(main.cpp.o)
software_init_hook                                c:/users/moseichuk/appdata/local/arduino15/packages/arduino/tools/arm-none-eabi-gcc/4.8.3-2014q1/bin/../lib/gcc/arm-none-eabi/4.8.3/../../../../arm-none-eabi/lib/armv7-m/crt0.o
start_c                                           C:\Users\moseichuk\AppData\Local\Temp\VMBuilds\TestSerial\Arduino_STM32_genericSTM32F103Z\Release\variant\start_c.c.o
                                                  C:\Users\moseichuk\AppData\Local\Temp\VMBuilds\TestSerial\Arduino_STM32_genericSTM32F103Z\Release\variant\start.S.o
strlen                                            c:/users/moseichuk/appdata/local/arduino15/packages/arduino/tools/arm-none-eabi-gcc/4.8.3-2014q1/bin/../lib/gcc/arm-none-eabi/4.8.3/../../../../arm-none-eabi/lib/armv7-m\libc.a(lib_a-strlen.o)
                                                  C:\Users\moseichuk\AppData\Local\Temp\VMBuilds\TestSerial\Arduino_STM32_genericSTM32F103Z\Release\core.a(usb_serial.cpp.o)
                                                  C:\Users\moseichuk\AppData\Local\Temp\VMBuilds\TestSerial\Arduino_STM32_genericSTM32F103Z\Release\core.a(Print.cpp.o)
systick_attach_callback                           C:\Users\moseichuk\AppData\Local\Temp\VMBuilds\TestSerial\Arduino_STM32_genericSTM32F103Z\Release\core.a(systick.c.o)
systick_disable                                   C:\Users\moseichuk\AppData\Local\Temp\VMBuilds\TestSerial\Arduino_STM32_genericSTM32F103Z\Release\core.a(systick.c.o)
systick_enable                                    C:\Users\moseichuk\AppData\Local\Temp\VMBuilds\TestSerial\Arduino_STM32_genericSTM32F103Z\Release\core.a(systick.c.o)
systick_init                                      C:\Users\moseichuk\AppData\Local\Temp\VMBuilds\TestSerial\Arduino_STM32_genericSTM32F103Z\Release\core.a(systick.c.o)
                                                  C:\Users\moseichuk\AppData\Local\Temp\VMBuilds\TestSerial\Arduino_STM32_genericSTM32F103Z\Release\variant\boards.cpp.o
systick_uptime_millis                             C:\Users\moseichuk\AppData\Local\Temp\VMBuilds\TestSerial\Arduino_STM32_genericSTM32F103Z\Release\core.a(i2c.c.o)
                                                  C:\Users\moseichuk\AppData\Local\Temp\VMBuilds\TestSerial\Arduino_STM32_genericSTM32F103Z\Release\core.a(usb_serial.cpp.o)
                                                  C:\Users\moseichuk\AppData\Local\Temp\VMBuilds\TestSerial\Arduino_STM32_genericSTM32F103Z\Release\core.a(systick.c.o)
thisByte                                          C:\Users\moseichuk\AppData\Local\Temp\VMBuilds\TestSerial\Arduino_STM32_genericSTM32F103Z\Release\TestSerial.cpp.o
throb                                             C:\Users\moseichuk\AppData\Local\Temp\VMBuilds\TestSerial\Arduino_STM32_genericSTM32F103Z\Release\core.a(util.c.o)
timer1                                            C:\Users\moseichuk\AppData\Local\Temp\VMBuilds\TestSerial\Arduino_STM32_genericSTM32F103Z\Release\core.a(timer.c.o)
                                                  C:\Users\moseichuk\AppData\Local\Temp\VMBuilds\TestSerial\Arduino_STM32_genericSTM32F103Z\Release\variant\board.cpp.o
timer2                                            C:\Users\moseichuk\AppData\Local\Temp\VMBuilds\TestSerial\Arduino_STM32_genericSTM32F103Z\Release\core.a(timer.c.o)
                                                  C:\Users\moseichuk\AppData\Local\Temp\VMBuilds\TestSerial\Arduino_STM32_genericSTM32F103Z\Release\variant\board.cpp.o
timer3                                            C:\Users\moseichuk\AppData\Local\Temp\VMBuilds\TestSerial\Arduino_STM32_genericSTM32F103Z\Release\core.a(timer.c.o)
                                                  C:\Users\moseichuk\AppData\Local\Temp\VMBuilds\TestSerial\Arduino_STM32_genericSTM32F103Z\Release\variant\board.cpp.o
timer4                                            C:\Users\moseichuk\AppData\Local\Temp\VMBuilds\TestSerial\Arduino_STM32_genericSTM32F103Z\Release\core.a(timer.c.o)
                                                  C:\Users\moseichuk\AppData\Local\Temp\VMBuilds\TestSerial\Arduino_STM32_genericSTM32F103Z\Release\variant\board.cpp.o
timer5                                            C:\Users\moseichuk\AppData\Local\Temp\VMBuilds\TestSerial\Arduino_STM32_genericSTM32F103Z\Release\core.a(timer.c.o)
timer6                                            C:\Users\moseichuk\AppData\Local\Temp\VMBuilds\TestSerial\Arduino_STM32_genericSTM32F103Z\Release\core.a(timer.c.o)
timer7                                            C:\Users\moseichuk\AppData\Local\Temp\VMBuilds\TestSerial\Arduino_STM32_genericSTM32F103Z\Release\core.a(timer.c.o)
timer8                                            C:\Users\moseichuk\AppData\Local\Temp\VMBuilds\TestSerial\Arduino_STM32_genericSTM32F103Z\Release\core.a(timer.c.o)
                                                  C:\Users\moseichuk\AppData\Local\Temp\VMBuilds\TestSerial\Arduino_STM32_genericSTM32F103Z\Release\variant\board.cpp.o
timer_attach_interrupt                            C:\Users\moseichuk\AppData\Local\Temp\VMBuilds\TestSerial\Arduino_STM32_genericSTM32F103Z\Release\core.a(timer.c.o)
timer_detach_interrupt                            C:\Users\moseichuk\AppData\Local\Temp\VMBuilds\TestSerial\Arduino_STM32_genericSTM32F103Z\Release\core.a(timer.c.o)
timer_disable                                     C:\Users\moseichuk\AppData\Local\Temp\VMBuilds\TestSerial\Arduino_STM32_genericSTM32F103Z\Release\core.a(timer.c.o)
timer_foreach                                     C:\Users\moseichuk\AppData\Local\Temp\VMBuilds\TestSerial\Arduino_STM32_genericSTM32F103Z\Release\core.a(timer.c.o)
                                                  C:\Users\moseichuk\AppData\Local\Temp\VMBuilds\TestSerial\Arduino_STM32_genericSTM32F103Z\Release\variant\boards.cpp.o
timer_has_cc_channel                              C:\Users\moseichuk\AppData\Local\Temp\VMBuilds\TestSerial\Arduino_STM32_genericSTM32F103Z\Release\core.a(timer.c.o)
                                                  C:\Users\moseichuk\AppData\Local\Temp\VMBuilds\TestSerial\Arduino_STM32_genericSTM32F103Z\Release\variant\boards.cpp.o
timer_init                                        C:\Users\moseichuk\AppData\Local\Temp\VMBuilds\TestSerial\Arduino_STM32_genericSTM32F103Z\Release\core.a(timer.c.o)
                                                  C:\Users\moseichuk\AppData\Local\Temp\VMBuilds\TestSerial\Arduino_STM32_genericSTM32F103Z\Release\variant\boards.cpp.o
timer_set_mode                                    C:\Users\moseichuk\AppData\Local\Temp\VMBuilds\TestSerial\Arduino_STM32_genericSTM32F103Z\Release\core.a(timer.c.o)
                                                  C:\Users\moseichuk\AppData\Local\Temp\VMBuilds\TestSerial\Arduino_STM32_genericSTM32F103Z\Release\core.a(HardwareSerial.cpp.o)
usart_config_gpios_async                          C:\Users\moseichuk\AppData\Local\Temp\VMBuilds\TestSerial\Arduino_STM32_genericSTM32F103Z\Release\core.a(usart_f1.c.o)
                                                  C:\Users\moseichuk\AppData\Local\Temp\VMBuilds\TestSerial\Arduino_STM32_genericSTM32F103Z\Release\core.a(HardwareSerial.cpp.o)
usart_disable                                     C:\Users\moseichuk\AppData\Local\Temp\VMBuilds\TestSerial\Arduino_STM32_genericSTM32F103Z\Release\core.a(usart.c.o)
                                                  C:\Users\moseichuk\AppData\Local\Temp\VMBuilds\TestSerial\Arduino_STM32_genericSTM32F103Z\Release\core.a(HardwareSerial.cpp.o)
usart_enable                                      C:\Users\moseichuk\AppData\Local\Temp\VMBuilds\TestSerial\Arduino_STM32_genericSTM32F103Z\Release\core.a(usart.c.o)
                                                  C:\Users\moseichuk\AppData\Local\Temp\VMBuilds\TestSerial\Arduino_STM32_genericSTM32F103Z\Release\core.a(HardwareSerial.cpp.o)
usart_foreach                                     C:\Users\moseichuk\AppData\Local\Temp\VMBuilds\TestSerial\Arduino_STM32_genericSTM32F103Z\Release\core.a(usart_f1.c.o)
usart_init                                        C:\Users\moseichuk\AppData\Local\Temp\VMBuilds\TestSerial\Arduino_STM32_genericSTM32F103Z\Release\core.a(usart.c.o)
                                                  C:\Users\moseichuk\AppData\Local\Temp\VMBuilds\TestSerial\Arduino_STM32_genericSTM32F103Z\Release\core.a(HardwareSerial.cpp.o)
usart_putudec                                     C:\Users\moseichuk\AppData\Local\Temp\VMBuilds\TestSerial\Arduino_STM32_genericSTM32F103Z\Release\core.a(usart.c.o)
                                                  C:\Users\moseichuk\AppData\Local\Temp\VMBuilds\TestSerial\Arduino_STM32_genericSTM32F103Z\Release\core.a(util.c.o)
usart_rx                                          C:\Users\moseichuk\AppData\Local\Temp\VMBuilds\TestSerial\Arduino_STM32_genericSTM32F103Z\Release\core.a(usart.c.o)
usart_set_baud_rate                               C:\Users\moseichuk\AppData\Local\Temp\VMBuilds\TestSerial\Arduino_STM32_genericSTM32F103Z\Release\core.a(usart_f1.c.o)
                                                  C:\Users\moseichuk\AppData\Local\Temp\VMBuilds\TestSerial\Arduino_STM32_genericSTM32F103Z\Release\core.a(HardwareSerial.cpp.o)
usart_tx                                          C:\Users\moseichuk\AppData\Local\Temp\VMBuilds\TestSerial\Arduino_STM32_genericSTM32F103Z\Release\core.a(usart.c.o)
                                                  C:\Users\moseichuk\AppData\Local\Temp\VMBuilds\TestSerial\Arduino_STM32_genericSTM32F103Z\Release\core.a(HardwareSerial.cpp.o)
                                                  C:\Users\moseichuk\AppData\Local\Temp\VMBuilds\TestSerial\Arduino_STM32_genericSTM32F103Z\Release\core.a(util.c.o)
usb_cdcacm_data_available                         C:\Users\moseichuk\AppData\Local\Temp\VMBuilds\TestSerial\Arduino_STM32_genericSTM32F103Z\Release\core.a(usb_cdcacm.c.o)
                                                  C:\Users\moseichuk\AppData\Local\Temp\VMBuilds\TestSerial\Arduino_STM32_genericSTM32F103Z\Release\core.a(usb_serial.cpp.o)
usb_cdcacm_disable                                C:\Users\moseichuk\AppData\Local\Temp\VMBuilds\TestSerial\Arduino_STM32_genericSTM32F103Z\Release\core.a(usb_cdcacm.c.o)
                                                  C:\Users\moseichuk\AppData\Local\Temp\VMBuilds\TestSerial\Arduino_STM32_genericSTM32F103Z\Release\core.a(usb_serial.cpp.o)
usb_cdcacm_enable                                 C:\Users\moseichuk\AppData\Local\Temp\VMBuilds\TestSerial\Arduino_STM32_genericSTM32F103Z\Release\core.a(usb_cdcacm.c.o)
                                                  C:\Users\moseichuk\AppData\Local\Temp\VMBuilds\TestSerial\Arduino_STM32_genericSTM32F103Z\Release\core.a(usb_serial.cpp.o)
usb_cdcacm_get_baud                               C:\Users\moseichuk\AppData\Local\Temp\VMBuilds\TestSerial\Arduino_STM32_genericSTM32F103Z\Release\core.a(usb_cdcacm.c.o)
usb_cdcacm_get_dtr                                C:\Users\moseichuk\AppData\Local\Temp\VMBuilds\TestSerial\Arduino_STM32_genericSTM32F103Z\Release\core.a(usb_cdcacm.c.o)
                                                  C:\Users\moseichuk\AppData\Local\Temp\VMBuilds\TestSerial\Arduino_STM32_genericSTM32F103Z\Release\core.a(usb_serial.cpp.o)
usb_cdcacm_get_line_coding                        C:\Users\moseichuk\AppData\Local\Temp\VMBuilds\TestSerial\Arduino_STM32_genericSTM32F103Z\Release\core.a(usb_cdcacm.c.o)
usb_cdcacm_get_n_data_bits                        C:\Users\moseichuk\AppData\Local\Temp\VMBuilds\TestSerial\Arduino_STM32_genericSTM32F103Z\Release\core.a(usb_cdcacm.c.o)
usb_cdcacm_get_parity                             C:\Users\moseichuk\AppData\Local\Temp\VMBuilds\TestSerial\Arduino_STM32_genericSTM32F103Z\Release\core.a(usb_cdcacm.c.o)
usb_cdcacm_get_pending                            C:\Users\moseichuk\AppData\Local\Temp\VMBuilds\TestSerial\Arduino_STM32_genericSTM32F103Z\Release\core.a(usb_cdcacm.c.o)
                                                  C:\Users\moseichuk\AppData\Local\Temp\VMBuilds\TestSerial\Arduino_STM32_genericSTM32F103Z\Release\core.a(usb_serial.cpp.o)
usb_cdcacm_get_rts                                C:\Users\moseichuk\AppData\Local\Temp\VMBuilds\TestSerial\Arduino_STM32_genericSTM32F103Z\Release\core.a(usb_cdcacm.c.o)
                                                  C:\Users\moseichuk\AppData\Local\Temp\VMBuilds\TestSerial\Arduino_STM32_genericSTM32F103Z\Release\core.a(usb_serial.cpp.o)
usb_cdcacm_get_stop_bits                          C:\Users\moseichuk\AppData\Local\Temp\VMBuilds\TestSerial\Arduino_STM32_genericSTM32F103Z\Release\core.a(usb_cdcacm.c.o)
usb_cdcacm_is_transmitting                        C:\Users\moseichuk\AppData\Local\Temp\VMBuilds\TestSerial\Arduino_STM32_genericSTM32F103Z\Release\core.a(usb_cdcacm.c.o)
usb_cdcacm_peek                                   C:\Users\moseichuk\AppData\Local\Temp\VMBuilds\TestSerial\Arduino_STM32_genericSTM32F103Z\Release\core.a(usb_cdcacm.c.o)
                                                  C:\Users\moseichuk\AppData\Local\Temp\VMBuilds\TestSerial\Arduino_STM32_genericSTM32F103Z\Release\core.a(usb_serial.cpp.o)
usb_cdcacm_peek_char                              C:\Users\moseichuk\AppData\Local\Temp\VMBuilds\TestSerial\Arduino_STM32_genericSTM32F103Z\Release\core.a(usb_cdcacm.c.o)
usb_cdcacm_peek_ex                                C:\Users\moseichuk\AppData\Local\Temp\VMBuilds\TestSerial\Arduino_STM32_genericSTM32F103Z\Release\core.a(usb_cdcacm.c.o)
                                                  C:\Users\moseichuk\AppData\Local\Temp\VMBuilds\TestSerial\Arduino_STM32_genericSTM32F103Z\Release\core.a(usb_serial.cpp.o)
usb_cdcacm_putc                                   C:\Users\moseichuk\AppData\Local\Temp\VMBuilds\TestSerial\Arduino_STM32_genericSTM32F103Z\Release\core.a(usb_cdcacm.c.o)
usb_cdcacm_rx                                     C:\Users\moseichuk\AppData\Local\Temp\VMBuilds\TestSerial\Arduino_STM32_genericSTM32F103Z\Release\core.a(usb_cdcacm.c.o)
                                                  C:\Users\moseichuk\AppData\Local\Temp\VMBuilds\TestSerial\Arduino_STM32_genericSTM32F103Z\Release\core.a(usb_serial.cpp.o)
usb_cdcacm_set_hooks                              C:\Users\moseichuk\AppData\Local\Temp\VMBuilds\TestSerial\Arduino_STM32_genericSTM32F103Z\Release\core.a(usb_cdcacm.c.o)
                                                  C:\Users\moseichuk\AppData\Local\Temp\VMBuilds\TestSerial\Arduino_STM32_genericSTM32F103Z\Release\core.a(usb_serial.cpp.o)
usb_cdcacm_tx                                     C:\Users\moseichuk\AppData\Local\Temp\VMBuilds\TestSerial\Arduino_STM32_genericSTM32F103Z\Release\core.a(usb_cdcacm.c.o)
                                                  C:\Users\moseichuk\AppData\Local\Temp\VMBuilds\TestSerial\Arduino_STM32_genericSTM32F103Z\Release\core.a(usb_serial.cpp.o)
usb_init_usblib                                   C:\Users\moseichuk\AppData\Local\Temp\VMBuilds\TestSerial\Arduino_STM32_genericSTM32F103Z\Release\core.a(usb.c.o)
                                                  C:\Users\moseichuk\AppData\Local\Temp\VMBuilds\TestSerial\Arduino_STM32_genericSTM32F103Z\Release\core.a(usb_cdcacm.c.o)
usb_power_off                                     C:\Users\moseichuk\AppData\Local\Temp\VMBuilds\TestSerial\Arduino_STM32_genericSTM32F103Z\Release\core.a(usb.c.o)
                                                  C:\Users\moseichuk\AppData\Local\Temp\VMBuilds\TestSerial\Arduino_STM32_genericSTM32F103Z\Release\core.a(usb_cdcacm.c.o)
usb_set_ep_rx_count                               C:\Users\moseichuk\AppData\Local\Temp\VMBuilds\TestSerial\Arduino_STM32_genericSTM32F103Z\Release\core.a(usb_reg_map.c.o)
                                                  C:\Users\moseichuk\AppData\Local\Temp\VMBuilds\TestSerial\Arduino_STM32_genericSTM32F103Z\Release\core.a(usb_cdcacm.c.o)
vtable for HardwareSerial                         C:\Users\moseichuk\AppData\Local\Temp\VMBuilds\TestSerial\Arduino_STM32_genericSTM32F103Z\Release\core.a(HardwareSerial.cpp.o)
vtable for Print                                  C:\Users\moseichuk\AppData\Local\Temp\VMBuilds\TestSerial\Arduino_STM32_genericSTM32F103Z\Release\core.a(Print.cpp.o)
vtable for Stream                                 C:\Users\moseichuk\AppData\Local\Temp\VMBuilds\TestSerial\Arduino_STM32_genericSTM32F103Z\Release\core.a(HardwareSerial.cpp.o)
                                                  C:\Users\moseichuk\AppData\Local\Temp\VMBuilds\TestSerial\Arduino_STM32_genericSTM32F103Z\Release\core.a(usb_serial.cpp.o)
vtable for USBSerial                              C:\Users\moseichuk\AppData\Local\Temp\VMBuilds\TestSerial\Arduino_STM32_genericSTM32F103Z\Release\core.a(usb_serial.cpp.o)
wInterrupt_Mask                                   C:\Users\moseichuk\AppData\Local\Temp\VMBuilds\TestSerial\Arduino_STM32_genericSTM32F103Z\Release\core.a(usb_init.c.o)
wirish::priv::board_reset_pll()                   C:\Users\moseichuk\AppData\Local\Temp\VMBuilds\TestSerial\Arduino_STM32_genericSTM32F103Z\Release\variant\boards_setup.cpp.o
                                                  C:\Users\moseichuk\AppData\Local\Temp\VMBuilds\TestSerial\Arduino_STM32_genericSTM32F103Z\Release\variant\boards.cpp.o
wirish::priv::board_setup_clock_prescalers()      C:\Users\moseichuk\AppData\Local\Temp\VMBuilds\TestSerial\Arduino_STM32_genericSTM32F103Z\Release\variant\boards_setup.cpp.o
                                                  C:\Users\moseichuk\AppData\Local\Temp\VMBuilds\TestSerial\Arduino_STM32_genericSTM32F103Z\Release\variant\boards.cpp.o
wirish::priv::board_setup_gpio()                  C:\Users\moseichuk\AppData\Local\Temp\VMBuilds\TestSerial\Arduino_STM32_genericSTM32F103Z\Release\variant\boards_setup.cpp.o
                                                  C:\Users\moseichuk\AppData\Local\Temp\VMBuilds\TestSerial\Arduino_STM32_genericSTM32F103Z\Release\variant\boards.cpp.o
wirish::priv::board_setup_usb()                   C:\Users\moseichuk\AppData\Local\Temp\VMBuilds\TestSerial\Arduino_STM32_genericSTM32F103Z\Release\variant\boards_setup.cpp.o
                                                  C:\Users\moseichuk\AppData\Local\Temp\VMBuilds\TestSerial\Arduino_STM32_genericSTM32F103Z\Release\variant\boards.cpp.o
wirish::priv::series_init()                       C:\Users\moseichuk\AppData\Local\Temp\VMBuilds\TestSerial\Arduino_STM32_genericSTM32F103Z\Release\variant\boards_setup.cpp.o
                                                  C:\Users\moseichuk\AppData\Local\Temp\VMBuilds\TestSerial\Arduino_STM32_genericSTM32F103Z\Release\variant\boards.cpp.o
wirish::priv::w_adc_pre                           C:\Users\moseichuk\AppData\Local\Temp\VMBuilds\TestSerial\Arduino_STM32_genericSTM32F103Z\Release\variant\boards_setup.cpp.o
                                                  C:\Users\moseichuk\AppData\Local\Temp\VMBuilds\TestSerial\Arduino_STM32_genericSTM32F103Z\Release\variant\boards.cpp.o
wirish::priv::w_adc_smp                           C:\Users\moseichuk\AppData\Local\Temp\VMBuilds\TestSerial\Arduino_STM32_genericSTM32F103Z\Release\variant\boards_setup.cpp.o
                                                  C:\Users\moseichuk\AppData\Local\Temp\VMBuilds\TestSerial\Arduino_STM32_genericSTM32F103Z\Release\variant\boards.cpp.o
wirish::priv::w_board_pll_cfg                     C:\Users\moseichuk\AppData\Local\Temp\VMBuilds\TestSerial\Arduino_STM32_genericSTM32F103Z\Release\variant\boards_setup.cpp.o
                                                  C:\Users\moseichuk\AppData\Local\Temp\VMBuilds\TestSerial\Arduino_STM32_genericSTM32F103Z\Release\variant\boards.cpp.o
